

Microchip MPLAB XC8 Assembler V2.32 build 20210201212658 
                                                                                               Wed Jun 23 14:38:42 2021

Microchip MPLAB XC8 C Compiler v2.32 (Free license) build 20210201212658 Og1 
     1                           	processor	16F877A
     2                           	pagewidth 120
     3                           	opt	flic
     4                           	psect	cinit,global,class=CODE,merge=1,delta=2
     5                           	psect	cstackCOMMON,global,class=COMMON,space=1,delta=1,noexec
     6                           	psect	cstackBANK0,global,class=BANK0,space=1,delta=1,noexec
     7                           	psect	maintext,global,class=CODE,split=1,delta=2
     8                           	psect	text1,local,class=CODE,merge=1,delta=2,group=1
     9                           	psect	text2,local,class=CODE,merge=1,delta=2,group=1
    10                           	psect	text3,local,class=CODE,merge=1,delta=2,group=1
    11                           	psect	text4,local,class=CODE,merge=1,delta=2,group=1
    12                           	psect	text5,local,class=CODE,merge=1,delta=2
    13                           	psect	text6,local,class=CODE,merge=1,delta=2,group=1
    14                           	psect	text7,local,class=CODE,merge=1,delta=2
    15                           	psect	config,global,abs,ovrld,class=CONFIG,space=4,delta=2,noexec
    16                           	dabs	1,0x7E,2
    17  0000                     
    18                           ; Version 2.20
    19                           ; Generated 12/02/2020 GMT
    20                           ; 
    21                           ; Copyright © 2020, Microchip Technology Inc. and its subsidiaries ("Microchip")
    22                           ; All rights reserved.
    23                           ; 
    24                           ; This software is developed by Microchip Technology Inc. and its subsidiaries ("Microch
      +                          ip").
    25                           ; 
    26                           ; Redistribution and use in source and binary forms, with or without modification, are
    27                           ; permitted provided that the following conditions are met:
    28                           ; 
    29                           ;     1. Redistributions of source code must retain the above copyright notice, this lis
      +                          t of
    30                           ;        conditions and the following disclaimer.
    31                           ; 
    32                           ;     2. Redistributions in binary form must reproduce the above copyright notice, this 
      +                          list
    33                           ;        of conditions and the following disclaimer in the documentation and/or other
    34                           ;        materials provided with the distribution.
    35                           ; 
    36                           ;     3. Microchip's name may not be used to endorse or promote products derived from th
      +                          is
    37                           ;        software without specific prior written permission.
    38                           ; 
    39                           ; THIS SOFTWARE IS PROVIDED BY MICROCHIP "AS IS" AND ANY EXPRESS OR IMPLIED WARRANTIES,
    40                           ; INCLUDING, BUT NOT LIMITED TO, THE IMPLIED WARRANTIES OF MERCHANTABILITY AND FITNESS F
      +                          OR
    41                           ; PURPOSE ARE DISCLAIMED.  IN NO EVENT SHALL MICROCHIP BE LIABLE FOR ANY DIRECT, INDIREC
      +                          T,
    42                           ; INCIDENTAL, SPECIAL, EXEMPLARY, OR CONSEQUENTIAL DAMAGES (INCLUDING BUT NOT LIMITED TO
    43                           ; PROCUREMENT OF SUBSTITUTE GOODS OR SERVICES; LOSS OF USE, DATA OR PROFITS; OR BUSINESS
    44                           ; INTERRUPTION) HOWSOEVER CAUSED AND ON ANY THEORY OF LIABILITY, WHETHER IN CONTRACT, ST
      +                          RICT
    45                           ; LIABILITY, OR TORT (INCLUDING NEGLIGENCE OR OTHERWISE) ARISING IN ANY WAY OUT OF THE U
      +                          SE OF
    46                           ; THIS SOFTWARE, EVEN IF ADVISED OF THE POSSIBILITY OF SUCH DAMAGE.
    47                           ; 
    48                           ; 
    49                           ; Code-generator required, PIC16F877A Definitions
    50                           ; 
    51                           ; SFR Addresses
    52  0000                     	;# 
    53  0001                     	;# 
    54  0002                     	;# 
    55  0003                     	;# 
    56  0004                     	;# 
    57  0005                     	;# 
    58  0006                     	;# 
    59  0007                     	;# 
    60  0008                     	;# 
    61  0009                     	;# 
    62  000A                     	;# 
    63  000B                     	;# 
    64  000C                     	;# 
    65  000D                     	;# 
    66  000E                     	;# 
    67  000E                     	;# 
    68  000F                     	;# 
    69  0010                     	;# 
    70  0011                     	;# 
    71  0012                     	;# 
    72  0013                     	;# 
    73  0014                     	;# 
    74  0015                     	;# 
    75  0015                     	;# 
    76  0016                     	;# 
    77  0017                     	;# 
    78  0018                     	;# 
    79  0019                     	;# 
    80  001A                     	;# 
    81  001B                     	;# 
    82  001B                     	;# 
    83  001C                     	;# 
    84  001D                     	;# 
    85  001E                     	;# 
    86  001F                     	;# 
    87  0081                     	;# 
    88  0085                     	;# 
    89  0086                     	;# 
    90  0087                     	;# 
    91  0088                     	;# 
    92  0089                     	;# 
    93  008C                     	;# 
    94  008D                     	;# 
    95  008E                     	;# 
    96  0091                     	;# 
    97  0092                     	;# 
    98  0093                     	;# 
    99  0094                     	;# 
   100  0098                     	;# 
   101  0099                     	;# 
   102  009C                     	;# 
   103  009D                     	;# 
   104  009E                     	;# 
   105  009F                     	;# 
   106  010C                     	;# 
   107  010D                     	;# 
   108  010E                     	;# 
   109  010F                     	;# 
   110  018C                     	;# 
   111  018D                     	;# 
   112  0000                     	;# 
   113  0001                     	;# 
   114  0002                     	;# 
   115  0003                     	;# 
   116  0004                     	;# 
   117  0005                     	;# 
   118  0006                     	;# 
   119  0007                     	;# 
   120  0008                     	;# 
   121  0009                     	;# 
   122  000A                     	;# 
   123  000B                     	;# 
   124  000C                     	;# 
   125  000D                     	;# 
   126  000E                     	;# 
   127  000E                     	;# 
   128  000F                     	;# 
   129  0010                     	;# 
   130  0011                     	;# 
   131  0012                     	;# 
   132  0013                     	;# 
   133  0014                     	;# 
   134  0015                     	;# 
   135  0015                     	;# 
   136  0016                     	;# 
   137  0017                     	;# 
   138  0018                     	;# 
   139  0019                     	;# 
   140  001A                     	;# 
   141  001B                     	;# 
   142  001B                     	;# 
   143  001C                     	;# 
   144  001D                     	;# 
   145  001E                     	;# 
   146  001F                     	;# 
   147  0081                     	;# 
   148  0085                     	;# 
   149  0086                     	;# 
   150  0087                     	;# 
   151  0088                     	;# 
   152  0089                     	;# 
   153  008C                     	;# 
   154  008D                     	;# 
   155  008E                     	;# 
   156  0091                     	;# 
   157  0092                     	;# 
   158  0093                     	;# 
   159  0094                     	;# 
   160  0098                     	;# 
   161  0099                     	;# 
   162  009C                     	;# 
   163  009D                     	;# 
   164  009E                     	;# 
   165  009F                     	;# 
   166  010C                     	;# 
   167  010D                     	;# 
   168  010E                     	;# 
   169  010F                     	;# 
   170  018C                     	;# 
   171  018D                     	;# 
   172  0008                     _PORTDbits	set	8
   173  001E                     _ADRESH	set	30
   174  001F                     _ADCON0	set	31
   175  00FA                     _GO_nDONE	set	250
   176  0085                     _TRISAbits	set	133
   177  0088                     _TRISD	set	136
   178  009E                     _ADRESL	set	158
   179  009F                     _ADCON1	set	159
   180                           
   181                           	psect	cinit
   182  07FC                     start_initialization:	
   183                           ; #config settings
   184                           
   185  07FC                     __initialization:
   186  07FC                     end_of_initialization:	
   187                           ;End of C runtime variable initialization code
   188                           
   189  07FC                     __end_of__initialization:
   190  07FC  0183               	clrf	3
   191  07FD  120A  118A  28DC   	ljmp	_main	;jump to C main() function
   192                           
   193                           	psect	cstackCOMMON
   194  0070                     __pcstackCOMMON:
   195  0070                     ?___flge:
   196  0070                     ?_ADC_init:	
   197                           ; 1 bit 
   198                           
   199  0070                     ??_ADC_init:	
   200                           ; 1 bytes @ 0x0
   201                           
   202  0070                     ?_main:	
   203                           ; 1 bytes @ 0x0
   204                           
   205  0070                     ?__Umul8_16:	
   206                           ; 1 bytes @ 0x0
   207                           
   208  0070                     ?___xxtofl:	
   209                           ; 2 bytes @ 0x0
   210                           
   211  0070                     __Umul8_16@multiplicand:	
   212                           ; 4 bytes @ 0x0
   213                           
   214  0070                     ___flge@ff1:	
   215                           ; 1 bytes @ 0x0
   216                           
   217  0070                     ___xxtofl@val:	
   218                           ; 4 bytes @ 0x0
   219                           
   220                           
   221                           ; 4 bytes @ 0x0
   222  0070                     	ds	2
   223  0072                     ??__Umul8_16:
   224                           
   225                           ; 1 bytes @ 0x2
   226  0072                     	ds	2
   227  0074                     ??___xxtofl:
   228  0074                     __Umul8_16@product:	
   229                           ; 1 bytes @ 0x4
   230                           
   231  0074                     ___flge@ff2:	
   232                           ; 2 bytes @ 0x4
   233                           
   234                           
   235                           ; 4 bytes @ 0x4
   236  0074                     	ds	2
   237  0076                     __Umul8_16@word_mpld:
   238                           
   239                           ; 2 bytes @ 0x6
   240  0076                     	ds	2
   241  0078                     ??___flge:
   242  0078                     __Umul8_16@multiplier:	
   243                           ; 1 bytes @ 0x8
   244                           
   245  0078                     ___xxtofl@sign:	
   246                           ; 1 bytes @ 0x8
   247                           
   248                           
   249                           ; 1 bytes @ 0x8
   250  0078                     	ds	1
   251  0079                     ??___flmul:
   252  0079                     ___xxtofl@exp:	
   253                           ; 1 bytes @ 0x9
   254                           
   255                           
   256                           ; 1 bytes @ 0x9
   257  0079                     	ds	1
   258  007A                     ___xxtofl@arg:
   259                           
   260                           ; 4 bytes @ 0xA
   261  007A                     	ds	4
   262  007E                     ??_main:
   263                           
   264                           	psect	cstackBANK0
   265  0020                     __pcstackBANK0:	
   266                           ; 1 bytes @ 0xE
   267                           
   268  0020                     ?_ADC_readChannel:
   269  0020                     ?___flmul:	
   270                           ; 4 bytes @ 0x0
   271                           
   272  0020                     ADC_readChannel@channel:	
   273                           ; 4 bytes @ 0x0
   274                           
   275  0020                     ___flmul@b:	
   276                           ; 2 bytes @ 0x0
   277                           
   278                           
   279                           ; 4 bytes @ 0x0
   280  0020                     	ds	4
   281  0024                     ??_ADC_readChannel:
   282  0024                     ___flmul@a:	
   283                           ; 1 bytes @ 0x4
   284                           
   285                           
   286                           ; 4 bytes @ 0x4
   287  0024                     	ds	4
   288  0028                     ___flmul@sign:
   289                           
   290                           ; 1 bytes @ 0x8
   291  0028                     	ds	1
   292  0029                     ___flmul@grs:
   293                           
   294                           ; 4 bytes @ 0x9
   295  0029                     	ds	4
   296  002D                     ___flmul@aexp:
   297                           
   298                           ; 1 bytes @ 0xD
   299  002D                     	ds	1
   300  002E                     ___flmul@bexp:
   301                           
   302                           ; 1 bytes @ 0xE
   303  002E                     	ds	1
   304  002F                     ___flmul@prod:
   305                           
   306                           ; 4 bytes @ 0xF
   307  002F                     	ds	4
   308  0033                     ___flmul@temp:
   309                           
   310                           ; 2 bytes @ 0x13
   311  0033                     	ds	2
   312  0035                     ?___fldiv:
   313  0035                     ___fldiv@a:	
   314                           ; 4 bytes @ 0x15
   315                           
   316                           
   317                           ; 4 bytes @ 0x15
   318  0035                     	ds	4
   319  0039                     ___fldiv@b:
   320                           
   321                           ; 4 bytes @ 0x19
   322  0039                     	ds	4
   323  003D                     ??___fldiv:
   324                           
   325                           ; 1 bytes @ 0x1D
   326  003D                     	ds	5
   327  0042                     ___fldiv@rem:
   328                           
   329                           ; 4 bytes @ 0x22
   330  0042                     	ds	4
   331  0046                     ___fldiv@sign:
   332                           
   333                           ; 1 bytes @ 0x26
   334  0046                     	ds	1
   335  0047                     ___fldiv@new_exp:
   336                           
   337                           ; 2 bytes @ 0x27
   338  0047                     	ds	2
   339  0049                     ___fldiv@grs:
   340                           
   341                           ; 4 bytes @ 0x29
   342  0049                     	ds	4
   343  004D                     ___fldiv@bexp:
   344                           
   345                           ; 1 bytes @ 0x2D
   346  004D                     	ds	1
   347  004E                     ___fldiv@aexp:
   348                           
   349                           ; 1 bytes @ 0x2E
   350  004E                     	ds	1
   351  004F                     main@adc_input:
   352                           
   353                           ; 4 bytes @ 0x2F
   354  004F                     	ds	4
   355  0053                     main@vout:
   356                           
   357                           ; 4 bytes @ 0x33
   358  0053                     	ds	4
   359                           
   360                           	psect	maintext
   361  00DC                     __pmaintext:	
   362 ;;
   363 ;;Main: autosize = 0, tempsize = 0, incstack = 0, save=0
   364 ;;
   365 ;; *************** function _main *****************
   366 ;; Defined at:
   367 ;;		line 26 in file "ldr_sensor.c"
   368 ;; Parameters:    Size  Location     Type
   369 ;;		None
   370 ;; Auto vars:     Size  Location     Type
   371 ;;  vout            4   51[BANK0 ] 
   372 ;;  adc_input       4   47[BANK0 ] 
   373 ;; Return value:  Size  Location     Type
   374 ;;                  1    wreg      void 
   375 ;; Registers used:
   376 ;;		wreg, status,2, status,0, btemp+1, pclath, cstack
   377 ;; Tracked objects:
   378 ;;		On entry : B00/0
   379 ;;		On exit  : 0/0
   380 ;;		Unchanged: 0/0
   381 ;; Data sizes:     COMMON   BANK0   BANK1   BANK3   BANK2
   382 ;;      Params:         0       0       0       0       0
   383 ;;      Locals:         0       8       0       0       0
   384 ;;      Temps:          0       0       0       0       0
   385 ;;      Totals:         0       8       0       0       0
   386 ;;Total ram usage:        8 bytes
   387 ;; Hardware stack levels required when called: 2
   388 ;; This function calls:
   389 ;;		_ADC_init
   390 ;;		_ADC_readChannel
   391 ;;		___fldiv
   392 ;;		___flge
   393 ;;		___flmul
   394 ;; This function is called by:
   395 ;;		Startup code after reset
   396 ;; This function uses a non-reentrant model
   397 ;;
   398                           
   399                           
   400                           ;psect for function _main
   401  00DC                     _main:
   402  00DC                     l1420:	
   403                           ;incstack = 0
   404                           ; Regs used in _main: [wreg+status,2+status,0+btemp+1+pclath+cstack]
   405                           
   406  00DC  3000               	movlw	0
   407  00DD  1283               	bcf	3,5	;RP0=0, select bank0
   408  00DE  1303               	bcf	3,6	;RP1=0, select bank0
   409  00DF  00D6               	movwf	main@vout+3
   410  00E0  3000               	movlw	0
   411  00E1  00D5               	movwf	main@vout+2
   412  00E2  3000               	movlw	0
   413  00E3  00D4               	movwf	main@vout+1
   414  00E4  3000               	movlw	0
   415  00E5  00D3               	movwf	main@vout
   416  00E6                     l1422:
   417                           
   418                           ;ldr_sensor.c: 28:     TRISD = 0;
   419  00E6  1683               	bsf	3,5	;RP0=1, select bank1
   420  00E7  1303               	bcf	3,6	;RP1=0, select bank1
   421  00E8  0188               	clrf	8	;volatile
   422  00E9                     l1424:
   423                           
   424                           ;ldr_sensor.c: 29:     PORTDbits.RD0 = 0;
   425  00E9  1283               	bcf	3,5	;RP0=0, select bank0
   426  00EA  1303               	bcf	3,6	;RP1=0, select bank0
   427  00EB  1008               	bcf	8,0	;volatile
   428  00EC                     l1426:
   429                           
   430                           ;ldr_sensor.c: 30:     TRISAbits.TRISA0 = 1;
   431  00EC  1683               	bsf	3,5	;RP0=1, select bank1
   432  00ED  1303               	bcf	3,6	;RP1=0, select bank1
   433  00EE  1405               	bsf	5,0	;volatile
   434  00EF                     l1428:
   435                           
   436                           ;ldr_sensor.c: 31:     ADC_init();
   437  00EF  120A  118A  204D  120A  118A  	fcall	_ADC_init
   438  00F4                     l1430:
   439                           
   440                           ;ldr_sensor.c: 33:         adc_input = ADC_readChannel(0);
   441  00F4  3000               	movlw	0
   442  00F5  1283               	bcf	3,5	;RP0=0, select bank0
   443  00F6  1303               	bcf	3,6	;RP1=0, select bank0
   444  00F7  00A0               	movwf	ADC_readChannel@channel
   445  00F8  00A1               	movwf	ADC_readChannel@channel+1
   446  00F9  120A  118A  207D  120A  118A  	fcall	_ADC_readChannel
   447  00FE  1283               	bcf	3,5	;RP0=0, select bank0
   448  00FF  1303               	bcf	3,6	;RP1=0, select bank0
   449  0100  0823               	movf	?_ADC_readChannel+3,w
   450  0101  00D2               	movwf	main@adc_input+3
   451  0102  0822               	movf	?_ADC_readChannel+2,w
   452  0103  00D1               	movwf	main@adc_input+2
   453  0104  0821               	movf	?_ADC_readChannel+1,w
   454  0105  00D0               	movwf	main@adc_input+1
   455  0106  0820               	movf	?_ADC_readChannel,w
   456  0107  00CF               	movwf	main@adc_input
   457  0108                     l1432:
   458                           
   459                           ;ldr_sensor.c: 34:         vout = adc_input * 5000.0f / 1023;
   460  0108  3044               	movlw	68
   461  0109  00B8               	movwf	___fldiv@a+3
   462  010A  307F               	movlw	127
   463  010B  00B7               	movwf	___fldiv@a+2
   464  010C  30C0               	movlw	192
   465  010D  00B6               	movwf	___fldiv@a+1
   466  010E  3000               	movlw	0
   467  010F  00B5               	movwf	___fldiv@a
   468  0110  3045               	movlw	69
   469  0111  00A3               	movwf	___flmul@b+3
   470  0112  309C               	movlw	156
   471  0113  00A2               	movwf	___flmul@b+2
   472  0114  3040               	movlw	64
   473  0115  00A1               	movwf	___flmul@b+1
   474  0116  3000               	movlw	0
   475  0117  00A0               	movwf	___flmul@b
   476  0118  0852               	movf	main@adc_input+3,w
   477  0119  00A7               	movwf	___flmul@a+3
   478  011A  0851               	movf	main@adc_input+2,w
   479  011B  00A6               	movwf	___flmul@a+2
   480  011C  0850               	movf	main@adc_input+1,w
   481  011D  00A5               	movwf	___flmul@a+1
   482  011E  084F               	movf	main@adc_input,w
   483  011F  00A4               	movwf	___flmul@a
   484  0120  120A  118A  249B  120A  118A  	fcall	___flmul
   485  0125  1283               	bcf	3,5	;RP0=0, select bank0
   486  0126  1303               	bcf	3,6	;RP1=0, select bank0
   487  0127  0823               	movf	?___flmul+3,w
   488  0128  00BC               	movwf	___fldiv@b+3
   489  0129  0822               	movf	?___flmul+2,w
   490  012A  00BB               	movwf	___fldiv@b+2
   491  012B  0821               	movf	?___flmul+1,w
   492  012C  00BA               	movwf	___fldiv@b+1
   493  012D  0820               	movf	?___flmul,w
   494  012E  00B9               	movwf	___fldiv@b
   495  012F  120A  118A  22BE  120A  118A  	fcall	___fldiv
   496  0134  1283               	bcf	3,5	;RP0=0, select bank0
   497  0135  1303               	bcf	3,6	;RP1=0, select bank0
   498  0136  0838               	movf	?___fldiv+3,w
   499  0137  00D6               	movwf	main@vout+3
   500  0138  0837               	movf	?___fldiv+2,w
   501  0139  00D5               	movwf	main@vout+2
   502  013A  0836               	movf	?___fldiv+1,w
   503  013B  00D4               	movwf	main@vout+1
   504  013C  0835               	movf	?___fldiv,w
   505  013D  00D3               	movwf	main@vout
   506  013E                     l1434:
   507                           
   508                           ;ldr_sensor.c: 35:         if(vout > 4500){
   509  013E  3045               	movlw	69
   510  013F  00F3               	movwf	___flge@ff1+3
   511  0140  308C               	movlw	140
   512  0141  00F2               	movwf	___flge@ff1+2
   513  0142  30A0               	movlw	160
   514  0143  00F1               	movwf	___flge@ff1+1
   515  0144  3000               	movlw	0
   516  0145  00F0               	movwf	___flge@ff1
   517  0146  0856               	movf	main@vout+3,w
   518  0147  00F7               	movwf	___flge@ff2+3
   519  0148  0855               	movf	main@vout+2,w
   520  0149  00F6               	movwf	___flge@ff2+2
   521  014A  0854               	movf	main@vout+1,w
   522  014B  00F5               	movwf	___flge@ff2+1
   523  014C  0853               	movf	main@vout,w
   524  014D  00F4               	movwf	___flge@ff2
   525  014E  120A  118A  2162  120A  118A  	fcall	___flge
   526  0153  1803               	btfsc	3,0
   527  0154  2956               	goto	u1881
   528  0155  2957               	goto	u1880
   529  0156                     u1881:
   530  0156  295B               	goto	l34
   531  0157                     u1880:
   532  0157                     l1436:
   533                           
   534                           ;ldr_sensor.c: 36:             PORTDbits.RD0 = 1;
   535  0157  1283               	bcf	3,5	;RP0=0, select bank0
   536  0158  1303               	bcf	3,6	;RP1=0, select bank0
   537  0159  1408               	bsf	8,0	;volatile
   538                           
   539                           ;ldr_sensor.c: 37:         } else {
   540  015A  28F4               	goto	l1430
   541  015B                     l34:
   542                           
   543                           ;ldr_sensor.c: 38:             PORTDbits.RD0 = 0;
   544  015B  1283               	bcf	3,5	;RP0=0, select bank0
   545  015C  1303               	bcf	3,6	;RP1=0, select bank0
   546  015D  1008               	bcf	8,0	;volatile
   547  015E  28F4               	goto	l1430
   548  015F  120A  118A  2800   	ljmp	start
   549  0162                     __end_of_main:
   550                           
   551                           	psect	text1
   552  049B                     __ptext1:	
   553 ;; *************** function ___flmul *****************
   554 ;; Defined at:
   555 ;;		line 8 in file "C:\Program Files\Microchip\xc8\v2.32\pic\sources\c90\common\sprcmul.c"
   556 ;; Parameters:    Size  Location     Type
   557 ;;  b               4    0[BANK0 ] void 
   558 ;;  a               4    4[BANK0 ] void 
   559 ;; Auto vars:     Size  Location     Type
   560 ;;  prod            4   15[BANK0 ] struct .
   561 ;;  grs             4    9[BANK0 ] unsigned long 
   562 ;;  temp            2   19[BANK0 ] struct .
   563 ;;  bexp            1   14[BANK0 ] unsigned char 
   564 ;;  aexp            1   13[BANK0 ] unsigned char 
   565 ;;  sign            1    8[BANK0 ] unsigned char 
   566 ;; Return value:  Size  Location     Type
   567 ;;                  4    0[BANK0 ] unsigned char 
   568 ;; Registers used:
   569 ;;		wreg, status,2, status,0, btemp+1, pclath, cstack
   570 ;; Tracked objects:
   571 ;;		On entry : 0/0
   572 ;;		On exit  : 0/0
   573 ;;		Unchanged: 0/0
   574 ;; Data sizes:     COMMON   BANK0   BANK1   BANK3   BANK2
   575 ;;      Params:         0       8       0       0       0
   576 ;;      Locals:         0      13       0       0       0
   577 ;;      Temps:          5       0       0       0       0
   578 ;;      Totals:         5      21       0       0       0
   579 ;;Total ram usage:       26 bytes
   580 ;; Hardware stack levels used: 1
   581 ;; Hardware stack levels required when called: 1
   582 ;; This function calls:
   583 ;;		__Umul8_16
   584 ;; This function is called by:
   585 ;;		_main
   586 ;; This function uses a non-reentrant model
   587 ;;
   588                           
   589                           
   590                           ;psect for function ___flmul
   591  049B                     ___flmul:
   592  049B                     l1280:	
   593                           ;incstack = 0
   594                           ; Regs used in ___flmul: [wreg+status,2+status,0+btemp+1+pclath+cstack]
   595                           
   596  049B  1283               	bcf	3,5	;RP0=0, select bank0
   597  049C  1303               	bcf	3,6	;RP1=0, select bank0
   598  049D  0823               	movf	___flmul@b+3,w
   599  049E  3980               	andlw	128
   600  049F  00F9               	movwf	??___flmul
   601  04A0  0879               	movf	??___flmul,w
   602  04A1  00A8               	movwf	___flmul@sign
   603  04A2                     l1282:
   604  04A2  0823               	movf	___flmul@b+3,w
   605  04A3  00F9               	movwf	??___flmul
   606  04A4  0779               	addwf	??___flmul,w
   607  04A5  00FA               	movwf	??___flmul+1
   608  04A6  087A               	movf	??___flmul+1,w
   609  04A7  00AE               	movwf	___flmul@bexp
   610  04A8                     l1284:
   611  04A8  1FA2               	btfss	___flmul@b+2,7
   612  04A9  2CAB               	goto	u1511
   613  04AA  2CAC               	goto	u1510
   614  04AB                     u1511:
   615  04AB  2CAD               	goto	l1288
   616  04AC                     u1510:
   617  04AC                     l1286:
   618  04AC  142E               	bsf	___flmul@bexp,0
   619  04AD                     l1288:
   620  04AD  082E               	movf	___flmul@bexp,w
   621  04AE  1903               	btfsc	3,2
   622  04AF  2CB1               	goto	u1521
   623  04B0  2CB2               	goto	u1520
   624  04B1                     u1521:
   625  04B1  2CC1               	goto	l1296
   626  04B2                     u1520:
   627  04B2                     l1290:
   628  04B2  0A2E               	incf	___flmul@bexp,w
   629  04B3  1D03               	btfss	3,2
   630  04B4  2CB6               	goto	u1531
   631  04B5  2CB7               	goto	u1530
   632  04B6                     u1531:
   633  04B6  2CBF               	goto	l1294
   634  04B7                     u1530:
   635  04B7                     l1292:
   636  04B7  3000               	movlw	0
   637  04B8  00A3               	movwf	___flmul@b+3
   638  04B9  3000               	movlw	0
   639  04BA  00A2               	movwf	___flmul@b+2
   640  04BB  3000               	movlw	0
   641  04BC  00A1               	movwf	___flmul@b+1
   642  04BD  3000               	movlw	0
   643  04BE  00A0               	movwf	___flmul@b
   644  04BF                     l1294:
   645  04BF  17A2               	bsf	___flmul@b+2,7
   646  04C0  2CC9               	goto	l1298
   647  04C1                     l1296:
   648  04C1  3000               	movlw	0
   649  04C2  00A3               	movwf	___flmul@b+3
   650  04C3  3000               	movlw	0
   651  04C4  00A2               	movwf	___flmul@b+2
   652  04C5  3000               	movlw	0
   653  04C6  00A1               	movwf	___flmul@b+1
   654  04C7  3000               	movlw	0
   655  04C8  00A0               	movwf	___flmul@b
   656  04C9                     l1298:
   657  04C9  0827               	movf	___flmul@a+3,w
   658  04CA  3980               	andlw	128
   659  04CB  00F9               	movwf	??___flmul
   660  04CC  0879               	movf	??___flmul,w
   661  04CD  06A8               	xorwf	___flmul@sign,f
   662  04CE                     l1300:
   663  04CE  0827               	movf	___flmul@a+3,w
   664  04CF  00F9               	movwf	??___flmul
   665  04D0  0779               	addwf	??___flmul,w
   666  04D1  00FA               	movwf	??___flmul+1
   667  04D2  087A               	movf	??___flmul+1,w
   668  04D3  00AD               	movwf	___flmul@aexp
   669  04D4                     l1302:
   670  04D4  1FA6               	btfss	___flmul@a+2,7
   671  04D5  2CD7               	goto	u1541
   672  04D6  2CD8               	goto	u1540
   673  04D7                     u1541:
   674  04D7  2CD9               	goto	l1306
   675  04D8                     u1540:
   676  04D8                     l1304:
   677  04D8  142D               	bsf	___flmul@aexp,0
   678  04D9                     l1306:
   679  04D9  082D               	movf	___flmul@aexp,w
   680  04DA  1903               	btfsc	3,2
   681  04DB  2CDD               	goto	u1551
   682  04DC  2CDE               	goto	u1550
   683  04DD                     u1551:
   684  04DD  2CED               	goto	l1314
   685  04DE                     u1550:
   686  04DE                     l1308:
   687  04DE  0A2D               	incf	___flmul@aexp,w
   688  04DF  1D03               	btfss	3,2
   689  04E0  2CE2               	goto	u1561
   690  04E1  2CE3               	goto	u1560
   691  04E2                     u1561:
   692  04E2  2CEB               	goto	l1312
   693  04E3                     u1560:
   694  04E3                     l1310:
   695  04E3  3000               	movlw	0
   696  04E4  00A7               	movwf	___flmul@a+3
   697  04E5  3000               	movlw	0
   698  04E6  00A6               	movwf	___flmul@a+2
   699  04E7  3000               	movlw	0
   700  04E8  00A5               	movwf	___flmul@a+1
   701  04E9  3000               	movlw	0
   702  04EA  00A4               	movwf	___flmul@a
   703  04EB                     l1312:
   704  04EB  17A6               	bsf	___flmul@a+2,7
   705  04EC  2CF5               	goto	l1316
   706  04ED                     l1314:
   707  04ED  3000               	movlw	0
   708  04EE  00A7               	movwf	___flmul@a+3
   709  04EF  3000               	movlw	0
   710  04F0  00A6               	movwf	___flmul@a+2
   711  04F1  3000               	movlw	0
   712  04F2  00A5               	movwf	___flmul@a+1
   713  04F3  3000               	movlw	0
   714  04F4  00A4               	movwf	___flmul@a
   715  04F5                     l1316:
   716  04F5  082D               	movf	___flmul@aexp,w
   717  04F6  1903               	btfsc	3,2
   718  04F7  2CF9               	goto	u1571
   719  04F8  2CFA               	goto	u1570
   720  04F9                     u1571:
   721  04F9  2CFF               	goto	l1320
   722  04FA                     u1570:
   723  04FA                     l1318:
   724  04FA  082E               	movf	___flmul@bexp,w
   725  04FB  1D03               	btfss	3,2
   726  04FC  2CFE               	goto	u1581
   727  04FD  2CFF               	goto	u1580
   728  04FE                     u1581:
   729  04FE  2D08               	goto	l1324
   730  04FF                     u1580:
   731  04FF                     l1320:
   732  04FF  3000               	movlw	0
   733  0500  00A3               	movwf	?___flmul+3
   734  0501  3000               	movlw	0
   735  0502  00A2               	movwf	?___flmul+2
   736  0503  3000               	movlw	0
   737  0504  00A1               	movwf	?___flmul+1
   738  0505  3000               	movlw	0
   739  0506  00A0               	movwf	?___flmul
   740  0507  2FFB               	goto	l513
   741  0508                     l1324:
   742  0508  0820               	movf	___flmul@b,w
   743  0509  00F9               	movwf	??___flmul
   744  050A  0879               	movf	??___flmul,w
   745  050B  00F0               	movwf	__Umul8_16@multiplicand
   746  050C  0826               	movf	___flmul@a+2,w
   747  050D  120A  118A  2056  120A  118A  	fcall	__Umul8_16
   748  0512  0871               	movf	?__Umul8_16+1,w
   749  0513  1283               	bcf	3,5	;RP0=0, select bank0
   750  0514  1303               	bcf	3,6	;RP1=0, select bank0
   751  0515  00B4               	movwf	___flmul@temp+1
   752  0516  0870               	movf	?__Umul8_16,w
   753  0517  00B3               	movwf	___flmul@temp
   754  0518                     l1326:
   755  0518  0833               	movf	___flmul@temp,w
   756  0519  00F9               	movwf	??___flmul
   757  051A  01FA               	clrf	??___flmul+1
   758  051B  01FB               	clrf	??___flmul+2
   759  051C  01FC               	clrf	??___flmul+3
   760  051D  087C               	movf	??___flmul+3,w
   761  051E  00AC               	movwf	___flmul@grs+3
   762  051F  087B               	movf	??___flmul+2,w
   763  0520  00AB               	movwf	___flmul@grs+2
   764  0521  087A               	movf	??___flmul+1,w
   765  0522  00AA               	movwf	___flmul@grs+1
   766  0523  0879               	movf	??___flmul,w
   767  0524  00A9               	movwf	___flmul@grs
   768  0525                     l1328:
   769  0525  0834               	movf	___flmul@temp+1,w
   770  0526  00F9               	movwf	??___flmul
   771  0527  01FA               	clrf	??___flmul+1
   772  0528  01FB               	clrf	??___flmul+2
   773  0529  01FC               	clrf	??___flmul+3
   774  052A  087C               	movf	??___flmul+3,w
   775  052B  00B2               	movwf	___flmul@prod+3
   776  052C  087B               	movf	??___flmul+2,w
   777  052D  00B1               	movwf	___flmul@prod+2
   778  052E  087A               	movf	??___flmul+1,w
   779  052F  00B0               	movwf	___flmul@prod+1
   780  0530  0879               	movf	??___flmul,w
   781  0531  00AF               	movwf	___flmul@prod
   782  0532  0821               	movf	___flmul@b+1,w
   783  0533  00F9               	movwf	??___flmul
   784  0534  0879               	movf	??___flmul,w
   785  0535  00F0               	movwf	__Umul8_16@multiplicand
   786  0536  0825               	movf	___flmul@a+1,w
   787  0537  120A  118A  2056  120A  118A  	fcall	__Umul8_16
   788  053C  0871               	movf	?__Umul8_16+1,w
   789  053D  1283               	bcf	3,5	;RP0=0, select bank0
   790  053E  1303               	bcf	3,6	;RP1=0, select bank0
   791  053F  00B4               	movwf	___flmul@temp+1
   792  0540  0870               	movf	?__Umul8_16,w
   793  0541  00B3               	movwf	___flmul@temp
   794  0542                     l1330:
   795  0542  0833               	movf	___flmul@temp,w
   796  0543  00F9               	movwf	??___flmul
   797  0544  01FA               	clrf	??___flmul+1
   798  0545  01FB               	clrf	??___flmul+2
   799  0546  01FC               	clrf	??___flmul+3
   800  0547  0879               	movf	??___flmul,w
   801  0548  07A9               	addwf	___flmul@grs,f
   802  0549  087A               	movf	??___flmul+1,w
   803  054A  1103               	clrz
   804  054B  1803               	skipnc
   805  054C  3E01               	addlw	1
   806  054D  1903               	skipnz
   807  054E  2D50               	goto	u1591
   808  054F  07AA               	addwf	___flmul@grs+1,f
   809  0550                     u1591:
   810  0550  087B               	movf	??___flmul+2,w
   811  0551  1103               	clrz
   812  0552  1803               	skipnc
   813  0553  3E01               	addlw	1
   814  0554  1903               	skipnz
   815  0555  2D57               	goto	u1592
   816  0556  07AB               	addwf	___flmul@grs+2,f
   817  0557                     u1592:
   818  0557  087C               	movf	??___flmul+3,w
   819  0558  1103               	clrz
   820  0559  1803               	skipnc
   821  055A  3E01               	addlw	1
   822  055B  1903               	skipnz
   823  055C  2D5E               	goto	u1593
   824  055D  07AC               	addwf	___flmul@grs+3,f
   825  055E                     u1593:
   826  055E                     l1332:
   827  055E  0834               	movf	___flmul@temp+1,w
   828  055F  00F9               	movwf	??___flmul
   829  0560  01FA               	clrf	??___flmul+1
   830  0561  01FB               	clrf	??___flmul+2
   831  0562  01FC               	clrf	??___flmul+3
   832  0563  0879               	movf	??___flmul,w
   833  0564  07AF               	addwf	___flmul@prod,f
   834  0565  087A               	movf	??___flmul+1,w
   835  0566  1103               	clrz
   836  0567  1803               	skipnc
   837  0568  3E01               	addlw	1
   838  0569  1903               	skipnz
   839  056A  2D6C               	goto	u1601
   840  056B  07B0               	addwf	___flmul@prod+1,f
   841  056C                     u1601:
   842  056C  087B               	movf	??___flmul+2,w
   843  056D  1103               	clrz
   844  056E  1803               	skipnc
   845  056F  3E01               	addlw	1
   846  0570  1903               	skipnz
   847  0571  2D73               	goto	u1602
   848  0572  07B1               	addwf	___flmul@prod+2,f
   849  0573                     u1602:
   850  0573  087C               	movf	??___flmul+3,w
   851  0574  1103               	clrz
   852  0575  1803               	skipnc
   853  0576  3E01               	addlw	1
   854  0577  1903               	skipnz
   855  0578  2D7A               	goto	u1603
   856  0579  07B2               	addwf	___flmul@prod+3,f
   857  057A                     u1603:
   858  057A  0822               	movf	___flmul@b+2,w
   859  057B  00F9               	movwf	??___flmul
   860  057C  0879               	movf	??___flmul,w
   861  057D  00F0               	movwf	__Umul8_16@multiplicand
   862  057E  0824               	movf	___flmul@a,w
   863  057F  120A  118A  2056  120A  118A  	fcall	__Umul8_16
   864  0584  0871               	movf	?__Umul8_16+1,w
   865  0585  1283               	bcf	3,5	;RP0=0, select bank0
   866  0586  1303               	bcf	3,6	;RP1=0, select bank0
   867  0587  00B4               	movwf	___flmul@temp+1
   868  0588  0870               	movf	?__Umul8_16,w
   869  0589  00B3               	movwf	___flmul@temp
   870  058A                     l1334:
   871  058A  0833               	movf	___flmul@temp,w
   872  058B  00F9               	movwf	??___flmul
   873  058C  01FA               	clrf	??___flmul+1
   874  058D  01FB               	clrf	??___flmul+2
   875  058E  01FC               	clrf	??___flmul+3
   876  058F  0879               	movf	??___flmul,w
   877  0590  07A9               	addwf	___flmul@grs,f
   878  0591  087A               	movf	??___flmul+1,w
   879  0592  1103               	clrz
   880  0593  1803               	skipnc
   881  0594  3E01               	addlw	1
   882  0595  1903               	skipnz
   883  0596  2D98               	goto	u1611
   884  0597  07AA               	addwf	___flmul@grs+1,f
   885  0598                     u1611:
   886  0598  087B               	movf	??___flmul+2,w
   887  0599  1103               	clrz
   888  059A  1803               	skipnc
   889  059B  3E01               	addlw	1
   890  059C  1903               	skipnz
   891  059D  2D9F               	goto	u1612
   892  059E  07AB               	addwf	___flmul@grs+2,f
   893  059F                     u1612:
   894  059F  087C               	movf	??___flmul+3,w
   895  05A0  1103               	clrz
   896  05A1  1803               	skipnc
   897  05A2  3E01               	addlw	1
   898  05A3  1903               	skipnz
   899  05A4  2DA6               	goto	u1613
   900  05A5  07AC               	addwf	___flmul@grs+3,f
   901  05A6                     u1613:
   902  05A6                     l1336:
   903  05A6  0834               	movf	___flmul@temp+1,w
   904  05A7  00F9               	movwf	??___flmul
   905  05A8  01FA               	clrf	??___flmul+1
   906  05A9  01FB               	clrf	??___flmul+2
   907  05AA  01FC               	clrf	??___flmul+3
   908  05AB  0879               	movf	??___flmul,w
   909  05AC  07AF               	addwf	___flmul@prod,f
   910  05AD  087A               	movf	??___flmul+1,w
   911  05AE  1103               	clrz
   912  05AF  1803               	skipnc
   913  05B0  3E01               	addlw	1
   914  05B1  1903               	skipnz
   915  05B2  2DB4               	goto	u1621
   916  05B3  07B0               	addwf	___flmul@prod+1,f
   917  05B4                     u1621:
   918  05B4  087B               	movf	??___flmul+2,w
   919  05B5  1103               	clrz
   920  05B6  1803               	skipnc
   921  05B7  3E01               	addlw	1
   922  05B8  1903               	skipnz
   923  05B9  2DBB               	goto	u1622
   924  05BA  07B1               	addwf	___flmul@prod+2,f
   925  05BB                     u1622:
   926  05BB  087C               	movf	??___flmul+3,w
   927  05BC  1103               	clrz
   928  05BD  1803               	skipnc
   929  05BE  3E01               	addlw	1
   930  05BF  1903               	skipnz
   931  05C0  2DC2               	goto	u1623
   932  05C1  07B2               	addwf	___flmul@prod+3,f
   933  05C2                     u1623:
   934  05C2                     l1338:
   935  05C2  3008               	movlw	8
   936  05C3  00F9               	movwf	??___flmul
   937  05C4                     u1635:
   938  05C4  1003               	clrc
   939  05C5  0DA9               	rlf	___flmul@grs,f
   940  05C6  0DAA               	rlf	___flmul@grs+1,f
   941  05C7  0DAB               	rlf	___flmul@grs+2,f
   942  05C8  0DAC               	rlf	___flmul@grs+3,f
   943  05C9  0BF9               	decfsz	??___flmul,f
   944  05CA  2DC4               	goto	u1635
   945  05CB                     l1340:
   946  05CB  0821               	movf	___flmul@b+1,w
   947  05CC  00F9               	movwf	??___flmul
   948  05CD  0879               	movf	??___flmul,w
   949  05CE  00F0               	movwf	__Umul8_16@multiplicand
   950  05CF  0824               	movf	___flmul@a,w
   951  05D0  120A  118A  2056  120A  118A  	fcall	__Umul8_16
   952  05D5  0871               	movf	?__Umul8_16+1,w
   953  05D6  1283               	bcf	3,5	;RP0=0, select bank0
   954  05D7  1303               	bcf	3,6	;RP1=0, select bank0
   955  05D8  00B4               	movwf	___flmul@temp+1
   956  05D9  0870               	movf	?__Umul8_16,w
   957  05DA  00B3               	movwf	___flmul@temp
   958  05DB                     l1342:
   959  05DB  0833               	movf	___flmul@temp,w
   960  05DC  00F9               	movwf	??___flmul
   961  05DD  0834               	movf	___flmul@temp+1,w
   962  05DE  00FA               	movwf	??___flmul+1
   963  05DF  01FB               	clrf	??___flmul+2
   964  05E0  01FC               	clrf	??___flmul+3
   965  05E1  0879               	movf	??___flmul,w
   966  05E2  07A9               	addwf	___flmul@grs,f
   967  05E3  087A               	movf	??___flmul+1,w
   968  05E4  1103               	clrz
   969  05E5  1803               	skipnc
   970  05E6  3E01               	addlw	1
   971  05E7  1903               	skipnz
   972  05E8  2DEA               	goto	u1641
   973  05E9  07AA               	addwf	___flmul@grs+1,f
   974  05EA                     u1641:
   975  05EA  087B               	movf	??___flmul+2,w
   976  05EB  1103               	clrz
   977  05EC  1803               	skipnc
   978  05ED  3E01               	addlw	1
   979  05EE  1903               	skipnz
   980  05EF  2DF1               	goto	u1642
   981  05F0  07AB               	addwf	___flmul@grs+2,f
   982  05F1                     u1642:
   983  05F1  087C               	movf	??___flmul+3,w
   984  05F2  1103               	clrz
   985  05F3  1803               	skipnc
   986  05F4  3E01               	addlw	1
   987  05F5  1903               	skipnz
   988  05F6  2DF8               	goto	u1643
   989  05F7  07AC               	addwf	___flmul@grs+3,f
   990  05F8                     u1643:
   991  05F8                     l1344:
   992  05F8  0820               	movf	___flmul@b,w
   993  05F9  00F9               	movwf	??___flmul
   994  05FA  0879               	movf	??___flmul,w
   995  05FB  00F0               	movwf	__Umul8_16@multiplicand
   996  05FC  0825               	movf	___flmul@a+1,w
   997  05FD  120A  118A  2056  120A  118A  	fcall	__Umul8_16
   998  0602  0871               	movf	?__Umul8_16+1,w
   999  0603  1283               	bcf	3,5	;RP0=0, select bank0
  1000  0604  1303               	bcf	3,6	;RP1=0, select bank0
  1001  0605  00B4               	movwf	___flmul@temp+1
  1002  0606  0870               	movf	?__Umul8_16,w
  1003  0607  00B3               	movwf	___flmul@temp
  1004  0608                     l1346:
  1005  0608  0833               	movf	___flmul@temp,w
  1006  0609  00F9               	movwf	??___flmul
  1007  060A  0834               	movf	___flmul@temp+1,w
  1008  060B  00FA               	movwf	??___flmul+1
  1009  060C  01FB               	clrf	??___flmul+2
  1010  060D  01FC               	clrf	??___flmul+3
  1011  060E  0879               	movf	??___flmul,w
  1012  060F  07A9               	addwf	___flmul@grs,f
  1013  0610  087A               	movf	??___flmul+1,w
  1014  0611  1103               	clrz
  1015  0612  1803               	skipnc
  1016  0613  3E01               	addlw	1
  1017  0614  1903               	skipnz
  1018  0615  2E17               	goto	u1651
  1019  0616  07AA               	addwf	___flmul@grs+1,f
  1020  0617                     u1651:
  1021  0617  087B               	movf	??___flmul+2,w
  1022  0618  1103               	clrz
  1023  0619  1803               	skipnc
  1024  061A  3E01               	addlw	1
  1025  061B  1903               	skipnz
  1026  061C  2E1E               	goto	u1652
  1027  061D  07AB               	addwf	___flmul@grs+2,f
  1028  061E                     u1652:
  1029  061E  087C               	movf	??___flmul+3,w
  1030  061F  1103               	clrz
  1031  0620  1803               	skipnc
  1032  0621  3E01               	addlw	1
  1033  0622  1903               	skipnz
  1034  0623  2E25               	goto	u1653
  1035  0624  07AC               	addwf	___flmul@grs+3,f
  1036  0625                     u1653:
  1037  0625                     l1348:
  1038  0625  3008               	movlw	8
  1039  0626  00F9               	movwf	??___flmul
  1040  0627                     u1665:
  1041  0627  1003               	clrc
  1042  0628  0DA9               	rlf	___flmul@grs,f
  1043  0629  0DAA               	rlf	___flmul@grs+1,f
  1044  062A  0DAB               	rlf	___flmul@grs+2,f
  1045  062B  0DAC               	rlf	___flmul@grs+3,f
  1046  062C  0BF9               	decfsz	??___flmul,f
  1047  062D  2E27               	goto	u1665
  1048  062E  0820               	movf	___flmul@b,w
  1049  062F  00F9               	movwf	??___flmul
  1050  0630  0879               	movf	??___flmul,w
  1051  0631  00F0               	movwf	__Umul8_16@multiplicand
  1052  0632  0824               	movf	___flmul@a,w
  1053  0633  120A  118A  2056  120A  118A  	fcall	__Umul8_16
  1054  0638  0871               	movf	?__Umul8_16+1,w
  1055  0639  1283               	bcf	3,5	;RP0=0, select bank0
  1056  063A  1303               	bcf	3,6	;RP1=0, select bank0
  1057  063B  00B4               	movwf	___flmul@temp+1
  1058  063C  0870               	movf	?__Umul8_16,w
  1059  063D  00B3               	movwf	___flmul@temp
  1060  063E                     l1350:
  1061  063E  0833               	movf	___flmul@temp,w
  1062  063F  00F9               	movwf	??___flmul
  1063  0640  0834               	movf	___flmul@temp+1,w
  1064  0641  00FA               	movwf	??___flmul+1
  1065  0642  01FB               	clrf	??___flmul+2
  1066  0643  01FC               	clrf	??___flmul+3
  1067  0644  0879               	movf	??___flmul,w
  1068  0645  07A9               	addwf	___flmul@grs,f
  1069  0646  087A               	movf	??___flmul+1,w
  1070  0647  1103               	clrz
  1071  0648  1803               	skipnc
  1072  0649  3E01               	addlw	1
  1073  064A  1903               	skipnz
  1074  064B  2E4D               	goto	u1671
  1075  064C  07AA               	addwf	___flmul@grs+1,f
  1076  064D                     u1671:
  1077  064D  087B               	movf	??___flmul+2,w
  1078  064E  1103               	clrz
  1079  064F  1803               	skipnc
  1080  0650  3E01               	addlw	1
  1081  0651  1903               	skipnz
  1082  0652  2E54               	goto	u1672
  1083  0653  07AB               	addwf	___flmul@grs+2,f
  1084  0654                     u1672:
  1085  0654  087C               	movf	??___flmul+3,w
  1086  0655  1103               	clrz
  1087  0656  1803               	skipnc
  1088  0657  3E01               	addlw	1
  1089  0658  1903               	skipnz
  1090  0659  2E5B               	goto	u1673
  1091  065A  07AC               	addwf	___flmul@grs+3,f
  1092  065B                     u1673:
  1093  065B                     l1352:
  1094  065B  0821               	movf	___flmul@b+1,w
  1095  065C  00F9               	movwf	??___flmul
  1096  065D  0879               	movf	??___flmul,w
  1097  065E  00F0               	movwf	__Umul8_16@multiplicand
  1098  065F  0826               	movf	___flmul@a+2,w
  1099  0660  120A  118A  2056  120A  118A  	fcall	__Umul8_16
  1100  0665  0871               	movf	?__Umul8_16+1,w
  1101  0666  1283               	bcf	3,5	;RP0=0, select bank0
  1102  0667  1303               	bcf	3,6	;RP1=0, select bank0
  1103  0668  00B4               	movwf	___flmul@temp+1
  1104  0669  0870               	movf	?__Umul8_16,w
  1105  066A  00B3               	movwf	___flmul@temp
  1106  066B  0833               	movf	___flmul@temp,w
  1107  066C  00F9               	movwf	??___flmul
  1108  066D  0834               	movf	___flmul@temp+1,w
  1109  066E  00FA               	movwf	??___flmul+1
  1110  066F  01FB               	clrf	??___flmul+2
  1111  0670  01FC               	clrf	??___flmul+3
  1112  0671  0879               	movf	??___flmul,w
  1113  0672  07AF               	addwf	___flmul@prod,f
  1114  0673  087A               	movf	??___flmul+1,w
  1115  0674  1103               	clrz
  1116  0675  1803               	skipnc
  1117  0676  3E01               	addlw	1
  1118  0677  1903               	skipnz
  1119  0678  2E7A               	goto	u1681
  1120  0679  07B0               	addwf	___flmul@prod+1,f
  1121  067A                     u1681:
  1122  067A  087B               	movf	??___flmul+2,w
  1123  067B  1103               	clrz
  1124  067C  1803               	skipnc
  1125  067D  3E01               	addlw	1
  1126  067E  1903               	skipnz
  1127  067F  2E81               	goto	u1682
  1128  0680  07B1               	addwf	___flmul@prod+2,f
  1129  0681                     u1682:
  1130  0681  087C               	movf	??___flmul+3,w
  1131  0682  1103               	clrz
  1132  0683  1803               	skipnc
  1133  0684  3E01               	addlw	1
  1134  0685  1903               	skipnz
  1135  0686  2E88               	goto	u1683
  1136  0687  07B2               	addwf	___flmul@prod+3,f
  1137  0688                     u1683:
  1138  0688                     l1354:
  1139  0688  0822               	movf	___flmul@b+2,w
  1140  0689  00F9               	movwf	??___flmul
  1141  068A  0879               	movf	??___flmul,w
  1142  068B  00F0               	movwf	__Umul8_16@multiplicand
  1143  068C  0825               	movf	___flmul@a+1,w
  1144  068D  120A  118A  2056  120A  118A  	fcall	__Umul8_16
  1145  0692  0871               	movf	?__Umul8_16+1,w
  1146  0693  1283               	bcf	3,5	;RP0=0, select bank0
  1147  0694  1303               	bcf	3,6	;RP1=0, select bank0
  1148  0695  00B4               	movwf	___flmul@temp+1
  1149  0696  0870               	movf	?__Umul8_16,w
  1150  0697  00B3               	movwf	___flmul@temp
  1151  0698                     l1356:
  1152  0698  0833               	movf	___flmul@temp,w
  1153  0699  00F9               	movwf	??___flmul
  1154  069A  0834               	movf	___flmul@temp+1,w
  1155  069B  00FA               	movwf	??___flmul+1
  1156  069C  01FB               	clrf	??___flmul+2
  1157  069D  01FC               	clrf	??___flmul+3
  1158  069E  0879               	movf	??___flmul,w
  1159  069F  07AF               	addwf	___flmul@prod,f
  1160  06A0  087A               	movf	??___flmul+1,w
  1161  06A1  1103               	clrz
  1162  06A2  1803               	skipnc
  1163  06A3  3E01               	addlw	1
  1164  06A4  1903               	skipnz
  1165  06A5  2EA7               	goto	u1691
  1166  06A6  07B0               	addwf	___flmul@prod+1,f
  1167  06A7                     u1691:
  1168  06A7  087B               	movf	??___flmul+2,w
  1169  06A8  1103               	clrz
  1170  06A9  1803               	skipnc
  1171  06AA  3E01               	addlw	1
  1172  06AB  1903               	skipnz
  1173  06AC  2EAE               	goto	u1692
  1174  06AD  07B1               	addwf	___flmul@prod+2,f
  1175  06AE                     u1692:
  1176  06AE  087C               	movf	??___flmul+3,w
  1177  06AF  1103               	clrz
  1178  06B0  1803               	skipnc
  1179  06B1  3E01               	addlw	1
  1180  06B2  1903               	skipnz
  1181  06B3  2EB5               	goto	u1693
  1182  06B4  07B2               	addwf	___flmul@prod+3,f
  1183  06B5                     u1693:
  1184  06B5  0822               	movf	___flmul@b+2,w
  1185  06B6  00F9               	movwf	??___flmul
  1186  06B7  0879               	movf	??___flmul,w
  1187  06B8  00F0               	movwf	__Umul8_16@multiplicand
  1188  06B9  0826               	movf	___flmul@a+2,w
  1189  06BA  120A  118A  2056  120A  118A  	fcall	__Umul8_16
  1190  06BF  0871               	movf	?__Umul8_16+1,w
  1191  06C0  1283               	bcf	3,5	;RP0=0, select bank0
  1192  06C1  1303               	bcf	3,6	;RP1=0, select bank0
  1193  06C2  00B4               	movwf	___flmul@temp+1
  1194  06C3  0870               	movf	?__Umul8_16,w
  1195  06C4  00B3               	movwf	___flmul@temp
  1196  06C5                     l1358:
  1197  06C5  0833               	movf	___flmul@temp,w
  1198  06C6  00F9               	movwf	??___flmul
  1199  06C7  0834               	movf	___flmul@temp+1,w
  1200  06C8  00FA               	movwf	??___flmul+1
  1201  06C9  01FB               	clrf	??___flmul+2
  1202  06CA  01FC               	clrf	??___flmul+3
  1203  06CB  3008               	movlw	8
  1204  06CC                     u1705:
  1205  06CC  1003               	clrc
  1206  06CD  0DF9               	rlf	??___flmul,f
  1207  06CE  0DFA               	rlf	??___flmul+1,f
  1208  06CF  0DFB               	rlf	??___flmul+2,f
  1209  06D0  0DFC               	rlf	??___flmul+3,f
  1210  06D1                     u1700:
  1211  06D1  3EFF               	addlw	-1
  1212  06D2  1D03               	skipz
  1213  06D3  2ECC               	goto	u1705
  1214  06D4  0879               	movf	??___flmul,w
  1215  06D5  07AF               	addwf	___flmul@prod,f
  1216  06D6  087A               	movf	??___flmul+1,w
  1217  06D7  1103               	clrz
  1218  06D8  1803               	skipnc
  1219  06D9  3E01               	addlw	1
  1220  06DA  1903               	skipnz
  1221  06DB  2EDD               	goto	u1711
  1222  06DC  07B0               	addwf	___flmul@prod+1,f
  1223  06DD                     u1711:
  1224  06DD  087B               	movf	??___flmul+2,w
  1225  06DE  1103               	clrz
  1226  06DF  1803               	skipnc
  1227  06E0  3E01               	addlw	1
  1228  06E1  1903               	skipnz
  1229  06E2  2EE4               	goto	u1712
  1230  06E3  07B1               	addwf	___flmul@prod+2,f
  1231  06E4                     u1712:
  1232  06E4  087C               	movf	??___flmul+3,w
  1233  06E5  1103               	clrz
  1234  06E6  1803               	skipnc
  1235  06E7  3E01               	addlw	1
  1236  06E8  1903               	skipnz
  1237  06E9  2EEB               	goto	u1713
  1238  06EA  07B2               	addwf	___flmul@prod+3,f
  1239  06EB                     u1713:
  1240  06EB                     l1360:
  1241  06EB  0829               	movf	___flmul@grs,w
  1242  06EC  00F9               	movwf	??___flmul
  1243  06ED  082A               	movf	___flmul@grs+1,w
  1244  06EE  00FA               	movwf	??___flmul+1
  1245  06EF  082B               	movf	___flmul@grs+2,w
  1246  06F0  00FB               	movwf	??___flmul+2
  1247  06F1  082C               	movf	___flmul@grs+3,w
  1248  06F2  00FC               	movwf	??___flmul+3
  1249  06F3  3018               	movlw	24
  1250  06F4                     u1725:
  1251  06F4  1003               	clrc
  1252  06F5  0CFC               	rrf	??___flmul+3,f
  1253  06F6  0CFB               	rrf	??___flmul+2,f
  1254  06F7  0CFA               	rrf	??___flmul+1,f
  1255  06F8  0CF9               	rrf	??___flmul,f
  1256  06F9                     u1720:
  1257  06F9  3EFF               	addlw	-1
  1258  06FA  1D03               	skipz
  1259  06FB  2EF4               	goto	u1725
  1260  06FC  0879               	movf	??___flmul,w
  1261  06FD  07AF               	addwf	___flmul@prod,f
  1262  06FE  087A               	movf	??___flmul+1,w
  1263  06FF  1103               	clrz
  1264  0700  1803               	skipnc
  1265  0701  3E01               	addlw	1
  1266  0702  1903               	skipnz
  1267  0703  2F05               	goto	u1731
  1268  0704  07B0               	addwf	___flmul@prod+1,f
  1269  0705                     u1731:
  1270  0705  087B               	movf	??___flmul+2,w
  1271  0706  1103               	clrz
  1272  0707  1803               	skipnc
  1273  0708  3E01               	addlw	1
  1274  0709  1903               	skipnz
  1275  070A  2F0C               	goto	u1732
  1276  070B  07B1               	addwf	___flmul@prod+2,f
  1277  070C                     u1732:
  1278  070C  087C               	movf	??___flmul+3,w
  1279  070D  1103               	clrz
  1280  070E  1803               	skipnc
  1281  070F  3E01               	addlw	1
  1282  0710  1903               	skipnz
  1283  0711  2F13               	goto	u1733
  1284  0712  07B2               	addwf	___flmul@prod+3,f
  1285  0713                     u1733:
  1286  0713                     l1362:
  1287  0713  3008               	movlw	8
  1288  0714  00F9               	movwf	??___flmul
  1289  0715                     u1745:
  1290  0715  1003               	clrc
  1291  0716  0DA9               	rlf	___flmul@grs,f
  1292  0717  0DAA               	rlf	___flmul@grs+1,f
  1293  0718  0DAB               	rlf	___flmul@grs+2,f
  1294  0719  0DAC               	rlf	___flmul@grs+3,f
  1295  071A  0BF9               	decfsz	??___flmul,f
  1296  071B  2F15               	goto	u1745
  1297  071C                     l1364:
  1298  071C  082E               	movf	___flmul@bexp,w
  1299  071D  072D               	addwf	___flmul@aexp,w
  1300  071E  00F9               	movwf	??___flmul
  1301  071F  01FA               	clrf	??___flmul+1
  1302  0720  0DFA               	rlf	??___flmul+1,f
  1303  0721  0879               	movf	??___flmul,w
  1304  0722  3E82               	addlw	130
  1305  0723  00B3               	movwf	___flmul@temp
  1306  0724  087A               	movf	??___flmul+1,w
  1307  0725  1803               	skipnc
  1308  0726  3E01               	addlw	1
  1309  0727  3EFF               	addlw	255
  1310  0728  00B4               	movwf	___flmul@temp+1
  1311  0729  2F47               	goto	l1376
  1312  072A                     l1366:
  1313  072A  3001               	movlw	1
  1314  072B  00F9               	movwf	??___flmul
  1315  072C                     u1755:
  1316  072C  1003               	clrc
  1317  072D  0DAF               	rlf	___flmul@prod,f
  1318  072E  0DB0               	rlf	___flmul@prod+1,f
  1319  072F  0DB1               	rlf	___flmul@prod+2,f
  1320  0730  0DB2               	rlf	___flmul@prod+3,f
  1321  0731  0BF9               	decfsz	??___flmul,f
  1322  0732  2F2C               	goto	u1755
  1323  0733                     l1368:
  1324  0733  1FAC               	btfss	___flmul@grs+3,7
  1325  0734  2F36               	goto	u1761
  1326  0735  2F37               	goto	u1760
  1327  0736                     u1761:
  1328  0736  2F38               	goto	l1372
  1329  0737                     u1760:
  1330  0737                     l1370:
  1331  0737  142F               	bsf	___flmul@prod,0
  1332  0738                     l1372:
  1333  0738  3001               	movlw	1
  1334  0739  00F9               	movwf	??___flmul
  1335  073A                     u1775:
  1336  073A  1003               	clrc
  1337  073B  0DA9               	rlf	___flmul@grs,f
  1338  073C  0DAA               	rlf	___flmul@grs+1,f
  1339  073D  0DAB               	rlf	___flmul@grs+2,f
  1340  073E  0DAC               	rlf	___flmul@grs+3,f
  1341  073F  0BF9               	decfsz	??___flmul,f
  1342  0740  2F3A               	goto	u1775
  1343  0741                     l1374:
  1344  0741  30FF               	movlw	255
  1345  0742  07B3               	addwf	___flmul@temp,f
  1346  0743  1803               	skipnc
  1347  0744  0AB4               	incf	___flmul@temp+1,f
  1348  0745  30FF               	movlw	255
  1349  0746  07B4               	addwf	___flmul@temp+1,f
  1350  0747                     l1376:
  1351  0747  1FB1               	btfss	___flmul@prod+2,7
  1352  0748  2F4A               	goto	u1781
  1353  0749  2F4B               	goto	u1780
  1354  074A                     u1781:
  1355  074A  2F2A               	goto	l1366
  1356  074B                     u1780:
  1357  074B                     l1378:
  1358  074B  01AD               	clrf	___flmul@aexp
  1359  074C                     l1380:
  1360  074C  1FAC               	btfss	___flmul@grs+3,7
  1361  074D  2F4F               	goto	u1791
  1362  074E  2F50               	goto	u1790
  1363  074F                     u1791:
  1364  074F  2F6C               	goto	l1388
  1365  0750                     u1790:
  1366  0750                     l1382:
  1367  0750  30FF               	movlw	255
  1368  0751  0529               	andwf	___flmul@grs,w
  1369  0752  00F9               	movwf	??___flmul
  1370  0753  30FF               	movlw	255
  1371  0754  052A               	andwf	___flmul@grs+1,w
  1372  0755  00FA               	movwf	??___flmul+1
  1373  0756  30FF               	movlw	255
  1374  0757  052B               	andwf	___flmul@grs+2,w
  1375  0758  00FB               	movwf	??___flmul+2
  1376  0759  307F               	movlw	127
  1377  075A  052C               	andwf	___flmul@grs+3,w
  1378  075B  00FC               	movwf	??___flmul+3
  1379  075C  087C               	movf	??___flmul+3,w
  1380  075D  047B               	iorwf	??___flmul+2,w
  1381  075E  047A               	iorwf	??___flmul+1,w
  1382  075F  0479               	iorwf	??___flmul,w
  1383  0760  1903               	skipnz
  1384  0761  2F63               	goto	u1801
  1385  0762  2F64               	goto	u1800
  1386  0763                     u1801:
  1387  0763  2F67               	goto	l519
  1388  0764                     u1800:
  1389  0764                     l1384:
  1390  0764  01AD               	clrf	___flmul@aexp
  1391  0765  0AAD               	incf	___flmul@aexp,f
  1392  0766  2F6C               	goto	l1388
  1393  0767                     l519:
  1394  0767  1C2F               	btfss	___flmul@prod,0
  1395  0768  2F6A               	goto	u1811
  1396  0769  2F6B               	goto	u1810
  1397  076A                     u1811:
  1398  076A  2F6C               	goto	l1388
  1399  076B                     u1810:
  1400  076B  2F64               	goto	l1384
  1401  076C                     l1388:
  1402  076C  082D               	movf	___flmul@aexp,w
  1403  076D  1903               	btfsc	3,2
  1404  076E  2F70               	goto	u1821
  1405  076F  2F71               	goto	u1820
  1406  0770                     u1821:
  1407  0770  2FA2               	goto	l1398
  1408  0771                     u1820:
  1409  0771                     l1390:
  1410  0771  3001               	movlw	1
  1411  0772  07AF               	addwf	___flmul@prod,f
  1412  0773  3000               	movlw	0
  1413  0774  1803               	skipnc
  1414  0775  3001               	movlw	1
  1415  0776  07B0               	addwf	___flmul@prod+1,f
  1416  0777  3000               	movlw	0
  1417  0778  1803               	skipnc
  1418  0779  3001               	movlw	1
  1419  077A  07B1               	addwf	___flmul@prod+2,f
  1420  077B  3000               	movlw	0
  1421  077C  1803               	skipnc
  1422  077D  3001               	movlw	1
  1423  077E  07B2               	addwf	___flmul@prod+3,f
  1424  077F                     l1392:
  1425  077F  1C32               	btfss	___flmul@prod+3,0
  1426  0780  2F82               	goto	u1831
  1427  0781  2F83               	goto	u1830
  1428  0782                     u1831:
  1429  0782  2FA2               	goto	l1398
  1430  0783                     u1830:
  1431  0783                     l1394:
  1432  0783  082F               	movf	___flmul@prod,w
  1433  0784  00F9               	movwf	??___flmul
  1434  0785  0830               	movf	___flmul@prod+1,w
  1435  0786  00FA               	movwf	??___flmul+1
  1436  0787  0831               	movf	___flmul@prod+2,w
  1437  0788  00FB               	movwf	??___flmul+2
  1438  0789  0832               	movf	___flmul@prod+3,w
  1439  078A  00FC               	movwf	??___flmul+3
  1440  078B  3001               	movlw	1
  1441  078C  00FD               	movwf	??___flmul+4
  1442  078D                     u1845:
  1443  078D  0D7C               	rlf	??___flmul+3,w
  1444  078E  0CFC               	rrf	??___flmul+3,f
  1445  078F  0CFB               	rrf	??___flmul+2,f
  1446  0790  0CFA               	rrf	??___flmul+1,f
  1447  0791  0CF9               	rrf	??___flmul,f
  1448  0792                     u1840:
  1449  0792  0BFD               	decfsz	??___flmul+4,f
  1450  0793  2F8D               	goto	u1845
  1451  0794  087C               	movf	??___flmul+3,w
  1452  0795  00B2               	movwf	___flmul@prod+3
  1453  0796  087B               	movf	??___flmul+2,w
  1454  0797  00B1               	movwf	___flmul@prod+2
  1455  0798  087A               	movf	??___flmul+1,w
  1456  0799  00B0               	movwf	___flmul@prod+1
  1457  079A  0879               	movf	??___flmul,w
  1458  079B  00AF               	movwf	___flmul@prod
  1459  079C                     l1396:
  1460  079C  3001               	movlw	1
  1461  079D  07B3               	addwf	___flmul@temp,f
  1462  079E  1803               	skipnc
  1463  079F  0AB4               	incf	___flmul@temp+1,f
  1464  07A0  3000               	movlw	0
  1465  07A1  07B4               	addwf	___flmul@temp+1,f
  1466  07A2                     l1398:
  1467  07A2  0834               	movf	___flmul@temp+1,w
  1468  07A3  3A80               	xorlw	128
  1469  07A4  00FF               	movwf	btemp+1
  1470  07A5  3080               	movlw	128
  1471  07A6  027F               	subwf	btemp+1,w
  1472  07A7  1D03               	skipz
  1473  07A8  2FAB               	goto	u1855
  1474  07A9  30FF               	movlw	255
  1475  07AA  0233               	subwf	___flmul@temp,w
  1476  07AB                     u1855:
  1477  07AB  1C03               	skipc
  1478  07AC  2FAE               	goto	u1851
  1479  07AD  2FAF               	goto	u1850
  1480  07AE                     u1851:
  1481  07AE  2FBA               	goto	l1402
  1482  07AF                     u1850:
  1483  07AF                     l1400:
  1484  07AF  307F               	movlw	127
  1485  07B0  1283               	bcf	3,5	;RP0=0, select bank0
  1486  07B1  1303               	bcf	3,6	;RP1=0, select bank0
  1487  07B2  00B2               	movwf	___flmul@prod+3
  1488  07B3  3080               	movlw	128
  1489  07B4  00B1               	movwf	___flmul@prod+2
  1490  07B5  3000               	movlw	0
  1491  07B6  00B0               	movwf	___flmul@prod+1
  1492  07B7  3000               	movlw	0
  1493  07B8  00AF               	movwf	___flmul@prod
  1494  07B9  2FEF               	goto	l525
  1495  07BA                     l1402:
  1496  07BA  1283               	bcf	3,5	;RP0=0, select bank0
  1497  07BB  1303               	bcf	3,6	;RP1=0, select bank0
  1498  07BC  0834               	movf	___flmul@temp+1,w
  1499  07BD  3A80               	xorlw	128
  1500  07BE  00FF               	movwf	btemp+1
  1501  07BF  3080               	movlw	128
  1502  07C0  027F               	subwf	btemp+1,w
  1503  07C1  1D03               	skipz
  1504  07C2  2FC5               	goto	u1865
  1505  07C3  3001               	movlw	1
  1506  07C4  0233               	subwf	___flmul@temp,w
  1507  07C5                     u1865:
  1508  07C5  1803               	skipnc
  1509  07C6  2FC8               	goto	u1861
  1510  07C7  2FC9               	goto	u1860
  1511  07C8                     u1861:
  1512  07C8  2FD5               	goto	l1408
  1513  07C9                     u1860:
  1514  07C9                     l1404:
  1515  07C9  3000               	movlw	0
  1516  07CA  1283               	bcf	3,5	;RP0=0, select bank0
  1517  07CB  1303               	bcf	3,6	;RP1=0, select bank0
  1518  07CC  00B2               	movwf	___flmul@prod+3
  1519  07CD  3000               	movlw	0
  1520  07CE  00B1               	movwf	___flmul@prod+2
  1521  07CF  3000               	movlw	0
  1522  07D0  00B0               	movwf	___flmul@prod+1
  1523  07D1  3000               	movlw	0
  1524  07D2  00AF               	movwf	___flmul@prod
  1525  07D3                     l1406:
  1526  07D3  01A8               	clrf	___flmul@sign
  1527  07D4  2FEF               	goto	l525
  1528  07D5                     l1408:
  1529  07D5  1283               	bcf	3,5	;RP0=0, select bank0
  1530  07D6  1303               	bcf	3,6	;RP1=0, select bank0
  1531  07D7  0833               	movf	___flmul@temp,w
  1532  07D8  00F9               	movwf	??___flmul
  1533  07D9  0879               	movf	??___flmul,w
  1534  07DA  00AE               	movwf	___flmul@bexp
  1535  07DB  30FF               	movlw	255
  1536  07DC  05AF               	andwf	___flmul@prod,f
  1537  07DD  30FF               	movlw	255
  1538  07DE  05B0               	andwf	___flmul@prod+1,f
  1539  07DF  307F               	movlw	127
  1540  07E0  05B1               	andwf	___flmul@prod+2,f
  1541  07E1  3000               	movlw	0
  1542  07E2  05B2               	andwf	___flmul@prod+3,f
  1543  07E3                     l1410:
  1544  07E3  1C2E               	btfss	___flmul@bexp,0
  1545  07E4  2FE6               	goto	u1871
  1546  07E5  2FE7               	goto	u1870
  1547  07E6                     u1871:
  1548  07E6  2FE8               	goto	l1414
  1549  07E7                     u1870:
  1550  07E7                     l1412:
  1551  07E7  17B1               	bsf	___flmul@prod+2,7
  1552  07E8                     l1414:
  1553  07E8  082E               	movf	___flmul@bexp,w
  1554  07E9  00F9               	movwf	??___flmul
  1555  07EA  1003               	clrc
  1556  07EB  0C79               	rrf	??___flmul,w
  1557  07EC  00FA               	movwf	??___flmul+1
  1558  07ED  087A               	movf	??___flmul+1,w
  1559  07EE  00B2               	movwf	___flmul@prod+3
  1560  07EF                     l525:
  1561  07EF  0828               	movf	___flmul@sign,w
  1562  07F0  00F9               	movwf	??___flmul
  1563  07F1  0879               	movf	??___flmul,w
  1564  07F2  04B2               	iorwf	___flmul@prod+3,f
  1565  07F3                     l1416:
  1566  07F3  0832               	movf	___flmul@prod+3,w
  1567  07F4  00A3               	movwf	?___flmul+3
  1568  07F5  0831               	movf	___flmul@prod+2,w
  1569  07F6  00A2               	movwf	?___flmul+2
  1570  07F7  0830               	movf	___flmul@prod+1,w
  1571  07F8  00A1               	movwf	?___flmul+1
  1572  07F9  082F               	movf	___flmul@prod,w
  1573  07FA  00A0               	movwf	?___flmul
  1574  07FB                     l513:
  1575  07FB  0008               	return
  1576  07FC                     __end_of___flmul:
  1577                           
  1578                           	psect	text2
  1579  0056                     __ptext2:	
  1580 ;; *************** function __Umul8_16 *****************
  1581 ;; Defined at:
  1582 ;;		line 4 in file "C:\Program Files\Microchip\xc8\v2.32\pic\sources\c90\common\Umul8_16.c"
  1583 ;; Parameters:    Size  Location     Type
  1584 ;;  multiplier      1    wreg     unsigned char 
  1585 ;;  multiplicand    1    0[COMMON] unsigned char 
  1586 ;; Auto vars:     Size  Location     Type
  1587 ;;  multiplier      1    8[COMMON] unsigned char 
  1588 ;;  word_mpld       2    6[COMMON] unsigned int 
  1589 ;;  product         2    4[COMMON] unsigned int 
  1590 ;; Return value:  Size  Location     Type
  1591 ;;                  2    0[COMMON] unsigned int 
  1592 ;; Registers used:
  1593 ;;		wreg, status,2, status,0
  1594 ;; Tracked objects:
  1595 ;;		On entry : 0/0
  1596 ;;		On exit  : 0/0
  1597 ;;		Unchanged: 0/0
  1598 ;; Data sizes:     COMMON   BANK0   BANK1   BANK3   BANK2
  1599 ;;      Params:         2       0       0       0       0
  1600 ;;      Locals:         5       0       0       0       0
  1601 ;;      Temps:          2       0       0       0       0
  1602 ;;      Totals:         9       0       0       0       0
  1603 ;;Total ram usage:        9 bytes
  1604 ;; Hardware stack levels used: 1
  1605 ;; This function calls:
  1606 ;;		Nothing
  1607 ;; This function is called by:
  1608 ;;		___flmul
  1609 ;; This function uses a non-reentrant model
  1610 ;;
  1611                           
  1612                           
  1613                           ;psect for function __Umul8_16
  1614  0056                     __Umul8_16:
  1615                           
  1616                           ;incstack = 0
  1617                           ; Regs used in __Umul8_16: [wreg+status,2+status,0]
  1618                           ;__Umul8_16@multiplier stored from wreg
  1619  0056  00F8               	movwf	__Umul8_16@multiplier
  1620  0057                     l1042:
  1621  0057  01F4               	clrf	__Umul8_16@product
  1622  0058  01F5               	clrf	__Umul8_16@product+1
  1623  0059                     l1044:
  1624  0059  0870               	movf	__Umul8_16@multiplicand,w
  1625  005A  00F2               	movwf	??__Umul8_16
  1626  005B  01F3               	clrf	??__Umul8_16+1
  1627  005C  0872               	movf	??__Umul8_16,w
  1628  005D  00F6               	movwf	__Umul8_16@word_mpld
  1629  005E  0873               	movf	??__Umul8_16+1,w
  1630  005F  00F7               	movwf	__Umul8_16@word_mpld+1
  1631  0060                     l1046:
  1632  0060  1C78               	btfss	__Umul8_16@multiplier,0
  1633  0061  2863               	goto	u951
  1634  0062  2864               	goto	u950
  1635  0063                     u951:
  1636  0063  286A               	goto	l532
  1637  0064                     u950:
  1638  0064                     l1048:
  1639  0064  0876               	movf	__Umul8_16@word_mpld,w
  1640  0065  07F4               	addwf	__Umul8_16@product,f
  1641  0066  1803               	skipnc
  1642  0067  0AF5               	incf	__Umul8_16@product+1,f
  1643  0068  0877               	movf	__Umul8_16@word_mpld+1,w
  1644  0069  07F5               	addwf	__Umul8_16@product+1,f
  1645  006A                     l532:
  1646  006A  3001               	movlw	1
  1647  006B                     u965:
  1648  006B  1003               	clrc
  1649  006C  0DF6               	rlf	__Umul8_16@word_mpld,f
  1650  006D  0DF7               	rlf	__Umul8_16@word_mpld+1,f
  1651  006E  3EFF               	addlw	-1
  1652  006F  1D03               	skipz
  1653  0070  286B               	goto	u965
  1654  0071  1003               	clrc
  1655  0072  0CF8               	rrf	__Umul8_16@multiplier,f
  1656  0073                     l1050:
  1657  0073  0878               	movf	__Umul8_16@multiplier,w
  1658  0074  1D03               	btfss	3,2
  1659  0075  2877               	goto	u971
  1660  0076  2878               	goto	u970
  1661  0077                     u971:
  1662  0077  2860               	goto	l1046
  1663  0078                     u970:
  1664  0078                     l1052:
  1665  0078  0875               	movf	__Umul8_16@product+1,w
  1666  0079  00F1               	movwf	?__Umul8_16+1
  1667  007A  0874               	movf	__Umul8_16@product,w
  1668  007B  00F0               	movwf	?__Umul8_16
  1669  007C                     l534:
  1670  007C  0008               	return
  1671  007D                     __end_of__Umul8_16:
  1672                           
  1673                           	psect	text3
  1674  0162                     __ptext3:	
  1675 ;; *************** function ___flge *****************
  1676 ;; Defined at:
  1677 ;;		line 4 in file "C:\Program Files\Microchip\xc8\v2.32\pic\sources\c90\common\flge.c"
  1678 ;; Parameters:    Size  Location     Type
  1679 ;;  ff1             4    0[COMMON] unsigned int 
  1680 ;;  ff2             4    4[COMMON] unsigned int 
  1681 ;; Auto vars:     Size  Location     Type
  1682 ;;		None
  1683 ;; Return value:  Size  Location     Type
  1684 ;;		None               void
  1685 ;; Registers used:
  1686 ;;		wreg, status,2, status,0
  1687 ;; Tracked objects:
  1688 ;;		On entry : 0/0
  1689 ;;		On exit  : 0/0
  1690 ;;		Unchanged: 0/0
  1691 ;; Data sizes:     COMMON   BANK0   BANK1   BANK3   BANK2
  1692 ;;      Params:         8       0       0       0       0
  1693 ;;      Locals:         0       0       0       0       0
  1694 ;;      Temps:          4       0       0       0       0
  1695 ;;      Totals:        12       0       0       0       0
  1696 ;;Total ram usage:       12 bytes
  1697 ;; Hardware stack levels used: 1
  1698 ;; This function calls:
  1699 ;;		Nothing
  1700 ;; This function is called by:
  1701 ;;		_main
  1702 ;; This function uses a non-reentrant model
  1703 ;;
  1704                           
  1705                           
  1706                           ;psect for function ___flge
  1707  0162                     ___flge:
  1708  0162                     l1118:	
  1709                           ;incstack = 0
  1710                           ; Regs used in ___flge: [wreg+status,2+status,0]
  1711                           
  1712  0162  3000               	movlw	0
  1713  0163  0570               	andwf	___flge@ff1,w
  1714  0164  00F8               	movwf	??___flge
  1715  0165  3000               	movlw	0
  1716  0166  0571               	andwf	___flge@ff1+1,w
  1717  0167  00F9               	movwf	??___flge+1
  1718  0168  3080               	movlw	128
  1719  0169  0572               	andwf	___flge@ff1+2,w
  1720  016A  00FA               	movwf	??___flge+2
  1721  016B  307F               	movlw	127
  1722  016C  0573               	andwf	___flge@ff1+3,w
  1723  016D  00FB               	movwf	??___flge+3
  1724  016E  087B               	movf	??___flge+3,w
  1725  016F  047A               	iorwf	??___flge+2,w
  1726  0170  0479               	iorwf	??___flge+1,w
  1727  0171  0478               	iorwf	??___flge,w
  1728  0172  1D03               	skipz
  1729  0173  2975               	goto	u1151
  1730  0174  2976               	goto	u1150
  1731  0175                     u1151:
  1732  0175  297E               	goto	l298
  1733  0176                     u1150:
  1734  0176                     l1120:
  1735  0176  3000               	movlw	0
  1736  0177  00F3               	movwf	___flge@ff1+3
  1737  0178  3000               	movlw	0
  1738  0179  00F2               	movwf	___flge@ff1+2
  1739  017A  3000               	movlw	0
  1740  017B  00F1               	movwf	___flge@ff1+1
  1741  017C  3000               	movlw	0
  1742  017D  00F0               	movwf	___flge@ff1
  1743  017E                     l298:
  1744  017E  3000               	movlw	0
  1745  017F  0574               	andwf	___flge@ff2,w
  1746  0180  00F8               	movwf	??___flge
  1747  0181  3000               	movlw	0
  1748  0182  0575               	andwf	___flge@ff2+1,w
  1749  0183  00F9               	movwf	??___flge+1
  1750  0184  3080               	movlw	128
  1751  0185  0576               	andwf	___flge@ff2+2,w
  1752  0186  00FA               	movwf	??___flge+2
  1753  0187  307F               	movlw	127
  1754  0188  0577               	andwf	___flge@ff2+3,w
  1755  0189  00FB               	movwf	??___flge+3
  1756  018A  087B               	movf	??___flge+3,w
  1757  018B  047A               	iorwf	??___flge+2,w
  1758  018C  0479               	iorwf	??___flge+1,w
  1759  018D  0478               	iorwf	??___flge,w
  1760  018E  1D03               	skipz
  1761  018F  2991               	goto	u1161
  1762  0190  2992               	goto	u1160
  1763  0191                     u1161:
  1764  0191  299A               	goto	l1124
  1765  0192                     u1160:
  1766  0192                     l1122:
  1767  0192  3000               	movlw	0
  1768  0193  00F7               	movwf	___flge@ff2+3
  1769  0194  3000               	movlw	0
  1770  0195  00F6               	movwf	___flge@ff2+2
  1771  0196  3000               	movlw	0
  1772  0197  00F5               	movwf	___flge@ff2+1
  1773  0198  3000               	movlw	0
  1774  0199  00F4               	movwf	___flge@ff2
  1775  019A                     l1124:
  1776  019A  1FF3               	btfss	___flge@ff1+3,7
  1777  019B  299D               	goto	u1171
  1778  019C  299E               	goto	u1170
  1779  019D                     u1171:
  1780  019D  29C2               	goto	l1128
  1781  019E                     u1170:
  1782  019E                     l1126:
  1783  019E  3000               	movlw	0
  1784  019F  00F8               	movwf	??___flge
  1785  01A0  3000               	movlw	0
  1786  01A1  00F9               	movwf	??___flge+1
  1787  01A2  3000               	movlw	0
  1788  01A3  00FA               	movwf	??___flge+2
  1789  01A4  3080               	movlw	128
  1790  01A5  00FB               	movwf	??___flge+3
  1791  01A6  0870               	movf	___flge@ff1,w
  1792  01A7  02F8               	subwf	??___flge,f
  1793  01A8  0871               	movf	___flge@ff1+1,w
  1794  01A9  1C03               	skipc
  1795  01AA  0F71               	incfsz	___flge@ff1+1,w
  1796  01AB  29AD               	goto	u1181
  1797  01AC  29AE               	goto	u1182
  1798  01AD                     u1181:
  1799  01AD  02F9               	subwf	??___flge+1,f
  1800  01AE                     u1182:
  1801  01AE  0872               	movf	___flge@ff1+2,w
  1802  01AF  1C03               	skipc
  1803  01B0  0F72               	incfsz	___flge@ff1+2,w
  1804  01B1  29B3               	goto	u1183
  1805  01B2  29B4               	goto	u1184
  1806  01B3                     u1183:
  1807  01B3  02FA               	subwf	??___flge+2,f
  1808  01B4                     u1184:
  1809  01B4  0873               	movf	___flge@ff1+3,w
  1810  01B5  1C03               	skipc
  1811  01B6  0F73               	incfsz	___flge@ff1+3,w
  1812  01B7  29B9               	goto	u1185
  1813  01B8  29BA               	goto	u1186
  1814  01B9                     u1185:
  1815  01B9  02FB               	subwf	??___flge+3,f
  1816  01BA                     u1186:
  1817  01BA  087B               	movf	??___flge+3,w
  1818  01BB  00F3               	movwf	___flge@ff1+3
  1819  01BC  087A               	movf	??___flge+2,w
  1820  01BD  00F2               	movwf	___flge@ff1+2
  1821  01BE  0879               	movf	??___flge+1,w
  1822  01BF  00F1               	movwf	___flge@ff1+1
  1823  01C0  0878               	movf	??___flge,w
  1824  01C1  00F0               	movwf	___flge@ff1
  1825  01C2                     l1128:
  1826  01C2  1FF7               	btfss	___flge@ff2+3,7
  1827  01C3  29C5               	goto	u1191
  1828  01C4  29C6               	goto	u1190
  1829  01C5                     u1191:
  1830  01C5  29EA               	goto	l301
  1831  01C6                     u1190:
  1832  01C6                     l1130:
  1833  01C6  3000               	movlw	0
  1834  01C7  00F8               	movwf	??___flge
  1835  01C8  3000               	movlw	0
  1836  01C9  00F9               	movwf	??___flge+1
  1837  01CA  3000               	movlw	0
  1838  01CB  00FA               	movwf	??___flge+2
  1839  01CC  3080               	movlw	128
  1840  01CD  00FB               	movwf	??___flge+3
  1841  01CE  0874               	movf	___flge@ff2,w
  1842  01CF  02F8               	subwf	??___flge,f
  1843  01D0  0875               	movf	___flge@ff2+1,w
  1844  01D1  1C03               	skipc
  1845  01D2  0F75               	incfsz	___flge@ff2+1,w
  1846  01D3  29D5               	goto	u1201
  1847  01D4  29D6               	goto	u1202
  1848  01D5                     u1201:
  1849  01D5  02F9               	subwf	??___flge+1,f
  1850  01D6                     u1202:
  1851  01D6  0876               	movf	___flge@ff2+2,w
  1852  01D7  1C03               	skipc
  1853  01D8  0F76               	incfsz	___flge@ff2+2,w
  1854  01D9  29DB               	goto	u1203
  1855  01DA  29DC               	goto	u1204
  1856  01DB                     u1203:
  1857  01DB  02FA               	subwf	??___flge+2,f
  1858  01DC                     u1204:
  1859  01DC  0877               	movf	___flge@ff2+3,w
  1860  01DD  1C03               	skipc
  1861  01DE  0F77               	incfsz	___flge@ff2+3,w
  1862  01DF  29E1               	goto	u1205
  1863  01E0  29E2               	goto	u1206
  1864  01E1                     u1205:
  1865  01E1  02FB               	subwf	??___flge+3,f
  1866  01E2                     u1206:
  1867  01E2  087B               	movf	??___flge+3,w
  1868  01E3  00F7               	movwf	___flge@ff2+3
  1869  01E4  087A               	movf	??___flge+2,w
  1870  01E5  00F6               	movwf	___flge@ff2+2
  1871  01E6  0879               	movf	??___flge+1,w
  1872  01E7  00F5               	movwf	___flge@ff2+1
  1873  01E8  0878               	movf	??___flge,w
  1874  01E9  00F4               	movwf	___flge@ff2
  1875  01EA                     l301:
  1876  01EA  3080               	movlw	128
  1877  01EB  06F3               	xorwf	___flge@ff1+3,f
  1878  01EC  3080               	movlw	128
  1879  01ED  06F7               	xorwf	___flge@ff2+3,f
  1880  01EE  0877               	movf	___flge@ff2+3,w
  1881  01EF  0273               	subwf	___flge@ff1+3,w
  1882  01F0  1D03               	skipz
  1883  01F1  29FC               	goto	u1215
  1884  01F2  0876               	movf	___flge@ff2+2,w
  1885  01F3  0272               	subwf	___flge@ff1+2,w
  1886  01F4  1D03               	skipz
  1887  01F5  29FC               	goto	u1215
  1888  01F6  0875               	movf	___flge@ff2+1,w
  1889  01F7  0271               	subwf	___flge@ff1+1,w
  1890  01F8  1D03               	skipz
  1891  01F9  29FC               	goto	u1215
  1892  01FA  0874               	movf	___flge@ff2,w
  1893  01FB  0270               	subwf	___flge@ff1,w
  1894  01FC                     u1215:
  1895  01FC  1803               	skipnc
  1896  01FD  29FF               	goto	u1211
  1897  01FE  2A00               	goto	u1210
  1898  01FF                     u1211:
  1899  01FF  2A02               	goto	l1134
  1900  0200                     u1210:
  1901  0200                     l1132:
  1902  0200  1003               	clrc
  1903  0201  2A03               	goto	l302
  1904  0202                     l1134:
  1905  0202  1403               	setc
  1906  0203                     l302:
  1907  0203  0008               	return
  1908  0204                     __end_of___flge:
  1909                           
  1910                           	psect	text4
  1911  02BE                     __ptext4:	
  1912 ;; *************** function ___fldiv *****************
  1913 ;; Defined at:
  1914 ;;		line 8 in file "C:\Program Files\Microchip\xc8\v2.32\pic\sources\c90\common\sprcdiv.c"
  1915 ;; Parameters:    Size  Location     Type
  1916 ;;  a               4   21[BANK0 ] unsigned int 
  1917 ;;  b               4   25[BANK0 ] unsigned int 
  1918 ;; Auto vars:     Size  Location     Type
  1919 ;;  grs             4   41[BANK0 ] unsigned long 
  1920 ;;  rem             4   34[BANK0 ] unsigned long 
  1921 ;;  new_exp         2   39[BANK0 ] int 
  1922 ;;  aexp            1   46[BANK0 ] unsigned char 
  1923 ;;  bexp            1   45[BANK0 ] unsigned char 
  1924 ;;  sign            1   38[BANK0 ] unsigned char 
  1925 ;; Return value:  Size  Location     Type
  1926 ;;                  4   21[BANK0 ] unsigned char 
  1927 ;; Registers used:
  1928 ;;		wreg, status,2, status,0, btemp+1
  1929 ;; Tracked objects:
  1930 ;;		On entry : 0/0
  1931 ;;		On exit  : 0/0
  1932 ;;		Unchanged: 0/0
  1933 ;; Data sizes:     COMMON   BANK0   BANK1   BANK3   BANK2
  1934 ;;      Params:         0       8       0       0       0
  1935 ;;      Locals:         0      13       0       0       0
  1936 ;;      Temps:          0       5       0       0       0
  1937 ;;      Totals:         0      26       0       0       0
  1938 ;;Total ram usage:       26 bytes
  1939 ;; Hardware stack levels used: 1
  1940 ;; This function calls:
  1941 ;;		Nothing
  1942 ;; This function is called by:
  1943 ;;		_main
  1944 ;; This function uses a non-reentrant model
  1945 ;;
  1946                           
  1947                           
  1948                           ;psect for function ___fldiv
  1949  02BE                     ___fldiv:
  1950  02BE                     l1138:	
  1951                           ;incstack = 0
  1952                           ; Regs used in ___fldiv: [wreg+status,2+status,0+btemp+1]
  1953                           
  1954  02BE  1283               	bcf	3,5	;RP0=0, select bank0
  1955  02BF  1303               	bcf	3,6	;RP1=0, select bank0
  1956  02C0  083C               	movf	___fldiv@b+3,w
  1957  02C1  3980               	andlw	128
  1958  02C2  00BD               	movwf	??___fldiv
  1959  02C3  083D               	movf	??___fldiv,w
  1960  02C4  00C6               	movwf	___fldiv@sign
  1961  02C5                     l1140:
  1962  02C5  083C               	movf	___fldiv@b+3,w
  1963  02C6  00BD               	movwf	??___fldiv
  1964  02C7  073D               	addwf	??___fldiv,w
  1965  02C8  00BE               	movwf	??___fldiv+1
  1966  02C9  083E               	movf	??___fldiv+1,w
  1967  02CA  00CD               	movwf	___fldiv@bexp
  1968  02CB                     l1142:
  1969  02CB  1FBB               	btfss	___fldiv@b+2,7
  1970  02CC  2ACE               	goto	u1221
  1971  02CD  2ACF               	goto	u1220
  1972  02CE                     u1221:
  1973  02CE  2AD0               	goto	l1146
  1974  02CF                     u1220:
  1975  02CF                     l1144:
  1976  02CF  144D               	bsf	___fldiv@bexp,0
  1977  02D0                     l1146:
  1978  02D0  084D               	movf	___fldiv@bexp,w
  1979  02D1  1903               	btfsc	3,2
  1980  02D2  2AD4               	goto	u1231
  1981  02D3  2AD5               	goto	u1230
  1982  02D4                     u1231:
  1983  02D4  2AE5               	goto	l1156
  1984  02D5                     u1230:
  1985  02D5                     l1148:
  1986  02D5  0A4D               	incf	___fldiv@bexp,w
  1987  02D6  1D03               	btfss	3,2
  1988  02D7  2AD9               	goto	u1241
  1989  02D8  2ADA               	goto	u1240
  1990  02D9                     u1241:
  1991  02D9  2AE2               	goto	l1152
  1992  02DA                     u1240:
  1993  02DA                     l1150:
  1994  02DA  3000               	movlw	0
  1995  02DB  00BC               	movwf	___fldiv@b+3
  1996  02DC  3000               	movlw	0
  1997  02DD  00BB               	movwf	___fldiv@b+2
  1998  02DE  3000               	movlw	0
  1999  02DF  00BA               	movwf	___fldiv@b+1
  2000  02E0  3000               	movlw	0
  2001  02E1  00B9               	movwf	___fldiv@b
  2002  02E2                     l1152:
  2003  02E2  17BB               	bsf	___fldiv@b+2,7
  2004  02E3                     l1154:
  2005  02E3  01BC               	clrf	___fldiv@b+3
  2006  02E4  2AED               	goto	l1158
  2007  02E5                     l1156:
  2008  02E5  3000               	movlw	0
  2009  02E6  00BC               	movwf	___fldiv@b+3
  2010  02E7  3000               	movlw	0
  2011  02E8  00BB               	movwf	___fldiv@b+2
  2012  02E9  3000               	movlw	0
  2013  02EA  00BA               	movwf	___fldiv@b+1
  2014  02EB  3000               	movlw	0
  2015  02EC  00B9               	movwf	___fldiv@b
  2016  02ED                     l1158:
  2017  02ED  0838               	movf	___fldiv@a+3,w
  2018  02EE  3980               	andlw	128
  2019  02EF  00BD               	movwf	??___fldiv
  2020  02F0  083D               	movf	??___fldiv,w
  2021  02F1  06C6               	xorwf	___fldiv@sign,f
  2022  02F2                     l1160:
  2023  02F2  0838               	movf	___fldiv@a+3,w
  2024  02F3  00BD               	movwf	??___fldiv
  2025  02F4  073D               	addwf	??___fldiv,w
  2026  02F5  00BE               	movwf	??___fldiv+1
  2027  02F6  083E               	movf	??___fldiv+1,w
  2028  02F7  00CE               	movwf	___fldiv@aexp
  2029  02F8                     l1162:
  2030  02F8  1FB7               	btfss	___fldiv@a+2,7
  2031  02F9  2AFB               	goto	u1251
  2032  02FA  2AFC               	goto	u1250
  2033  02FB                     u1251:
  2034  02FB  2AFD               	goto	l1166
  2035  02FC                     u1250:
  2036  02FC                     l1164:
  2037  02FC  144E               	bsf	___fldiv@aexp,0
  2038  02FD                     l1166:
  2039  02FD  084E               	movf	___fldiv@aexp,w
  2040  02FE  1903               	btfsc	3,2
  2041  02FF  2B01               	goto	u1261
  2042  0300  2B02               	goto	u1260
  2043  0301                     u1261:
  2044  0301  2B12               	goto	l1176
  2045  0302                     u1260:
  2046  0302                     l1168:
  2047  0302  0A4E               	incf	___fldiv@aexp,w
  2048  0303  1D03               	btfss	3,2
  2049  0304  2B06               	goto	u1271
  2050  0305  2B07               	goto	u1270
  2051  0306                     u1271:
  2052  0306  2B0F               	goto	l1172
  2053  0307                     u1270:
  2054  0307                     l1170:
  2055  0307  3000               	movlw	0
  2056  0308  00B8               	movwf	___fldiv@a+3
  2057  0309  3000               	movlw	0
  2058  030A  00B7               	movwf	___fldiv@a+2
  2059  030B  3000               	movlw	0
  2060  030C  00B6               	movwf	___fldiv@a+1
  2061  030D  3000               	movlw	0
  2062  030E  00B5               	movwf	___fldiv@a
  2063  030F                     l1172:
  2064  030F  17B7               	bsf	___fldiv@a+2,7
  2065  0310                     l1174:
  2066  0310  01B8               	clrf	___fldiv@a+3
  2067  0311  2B1A               	goto	l473
  2068  0312                     l1176:
  2069  0312  3000               	movlw	0
  2070  0313  00B8               	movwf	___fldiv@a+3
  2071  0314  3000               	movlw	0
  2072  0315  00B7               	movwf	___fldiv@a+2
  2073  0316  3000               	movlw	0
  2074  0317  00B6               	movwf	___fldiv@a+1
  2075  0318  3000               	movlw	0
  2076  0319  00B5               	movwf	___fldiv@a
  2077  031A                     l473:
  2078  031A  0838               	movf	___fldiv@a+3,w
  2079  031B  0437               	iorwf	___fldiv@a+2,w
  2080  031C  0436               	iorwf	___fldiv@a+1,w
  2081  031D  0435               	iorwf	___fldiv@a,w
  2082  031E  1D03               	skipz
  2083  031F  2B21               	goto	u1281
  2084  0320  2B22               	goto	u1280
  2085  0321                     u1281:
  2086  0321  2B3B               	goto	l1186
  2087  0322                     u1280:
  2088  0322                     l1178:
  2089  0322  3000               	movlw	0
  2090  0323  00BC               	movwf	___fldiv@b+3
  2091  0324  3000               	movlw	0
  2092  0325  00BB               	movwf	___fldiv@b+2
  2093  0326  3000               	movlw	0
  2094  0327  00BA               	movwf	___fldiv@b+1
  2095  0328  3000               	movlw	0
  2096  0329  00B9               	movwf	___fldiv@b
  2097  032A  3080               	movlw	128
  2098  032B  04BB               	iorwf	___fldiv@b+2,f
  2099  032C  307F               	movlw	127
  2100  032D  04BC               	iorwf	___fldiv@b+3,f
  2101  032E                     l1180:
  2102  032E  0846               	movf	___fldiv@sign,w
  2103  032F  00BD               	movwf	??___fldiv
  2104  0330  083D               	movf	??___fldiv,w
  2105  0331  04BC               	iorwf	___fldiv@b+3,f
  2106  0332                     l1182:
  2107  0332  083C               	movf	___fldiv@b+3,w
  2108  0333  00B8               	movwf	?___fldiv+3
  2109  0334  083B               	movf	___fldiv@b+2,w
  2110  0335  00B7               	movwf	?___fldiv+2
  2111  0336  083A               	movf	___fldiv@b+1,w
  2112  0337  00B6               	movwf	?___fldiv+1
  2113  0338  0839               	movf	___fldiv@b,w
  2114  0339  00B5               	movwf	?___fldiv
  2115  033A  2C9A               	goto	l475
  2116  033B                     l1186:
  2117  033B  084D               	movf	___fldiv@bexp,w
  2118  033C  1D03               	btfss	3,2
  2119  033D  2B3F               	goto	u1291
  2120  033E  2B40               	goto	u1290
  2121  033F                     u1291:
  2122  033F  2B49               	goto	l1192
  2123  0340                     u1290:
  2124  0340                     l1188:
  2125  0340  3000               	movlw	0
  2126  0341  00B8               	movwf	?___fldiv+3
  2127  0342  3000               	movlw	0
  2128  0343  00B7               	movwf	?___fldiv+2
  2129  0344  3000               	movlw	0
  2130  0345  00B6               	movwf	?___fldiv+1
  2131  0346  3000               	movlw	0
  2132  0347  00B5               	movwf	?___fldiv
  2133  0348  2C9A               	goto	l475
  2134  0349                     l1192:
  2135  0349  084D               	movf	___fldiv@bexp,w
  2136  034A  00BD               	movwf	??___fldiv
  2137  034B  01BE               	clrf	??___fldiv+1
  2138  034C  083E               	movf	??___fldiv+1,w
  2139  034D  00C0               	movwf	??___fldiv+3
  2140  034E  084E               	movf	___fldiv@aexp,w
  2141  034F  023D               	subwf	??___fldiv,w
  2142  0350  00BF               	movwf	??___fldiv+2
  2143  0351  1C03               	skipc
  2144  0352  03C0               	decf	??___fldiv+3,f
  2145  0353  083F               	movf	??___fldiv+2,w
  2146  0354  3E7F               	addlw	127
  2147  0355  00C7               	movwf	___fldiv@new_exp
  2148  0356  0840               	movf	??___fldiv+3,w
  2149  0357  1803               	skipnc
  2150  0358  3E01               	addlw	1
  2151  0359  3E00               	addlw	0
  2152  035A  00C8               	movwf	___fldiv@new_exp+1
  2153  035B                     l1194:
  2154  035B  083C               	movf	___fldiv@b+3,w
  2155  035C  00C5               	movwf	___fldiv@rem+3
  2156  035D  083B               	movf	___fldiv@b+2,w
  2157  035E  00C4               	movwf	___fldiv@rem+2
  2158  035F  083A               	movf	___fldiv@b+1,w
  2159  0360  00C3               	movwf	___fldiv@rem+1
  2160  0361  0839               	movf	___fldiv@b,w
  2161  0362  00C2               	movwf	___fldiv@rem
  2162  0363                     l1196:
  2163  0363  3000               	movlw	0
  2164  0364  00BC               	movwf	___fldiv@b+3
  2165  0365  3000               	movlw	0
  2166  0366  00BB               	movwf	___fldiv@b+2
  2167  0367  3000               	movlw	0
  2168  0368  00BA               	movwf	___fldiv@b+1
  2169  0369  3000               	movlw	0
  2170  036A  00B9               	movwf	___fldiv@b
  2171  036B                     l1198:
  2172  036B  3000               	movlw	0
  2173  036C  00CC               	movwf	___fldiv@grs+3
  2174  036D  3000               	movlw	0
  2175  036E  00CB               	movwf	___fldiv@grs+2
  2176  036F  3000               	movlw	0
  2177  0370  00CA               	movwf	___fldiv@grs+1
  2178  0371  3000               	movlw	0
  2179  0372  00C9               	movwf	___fldiv@grs
  2180  0373                     l1200:
  2181  0373  01CE               	clrf	___fldiv@aexp
  2182  0374  2BBF               	goto	l1220
  2183  0375                     l1202:
  2184  0375  084E               	movf	___fldiv@aexp,w
  2185  0376  1903               	btfsc	3,2
  2186  0377  2B79               	goto	u1301
  2187  0378  2B7A               	goto	u1300
  2188  0379                     u1301:
  2189  0379  2B9A               	goto	l1212
  2190  037A                     u1300:
  2191  037A                     l1204:
  2192  037A  3001               	movlw	1
  2193  037B  00BD               	movwf	??___fldiv
  2194  037C                     u1315:
  2195  037C  1003               	clrc
  2196  037D  0DC2               	rlf	___fldiv@rem,f
  2197  037E  0DC3               	rlf	___fldiv@rem+1,f
  2198  037F  0DC4               	rlf	___fldiv@rem+2,f
  2199  0380  0DC5               	rlf	___fldiv@rem+3,f
  2200  0381  0BBD               	decfsz	??___fldiv,f
  2201  0382  2B7C               	goto	u1315
  2202  0383  3001               	movlw	1
  2203  0384  00BD               	movwf	??___fldiv
  2204  0385                     u1325:
  2205  0385  1003               	clrc
  2206  0386  0DB9               	rlf	___fldiv@b,f
  2207  0387  0DBA               	rlf	___fldiv@b+1,f
  2208  0388  0DBB               	rlf	___fldiv@b+2,f
  2209  0389  0DBC               	rlf	___fldiv@b+3,f
  2210  038A  0BBD               	decfsz	??___fldiv,f
  2211  038B  2B85               	goto	u1325
  2212  038C                     l1206:
  2213  038C  1FCC               	btfss	___fldiv@grs+3,7
  2214  038D  2B8F               	goto	u1331
  2215  038E  2B90               	goto	u1330
  2216  038F                     u1331:
  2217  038F  2B91               	goto	l1210
  2218  0390                     u1330:
  2219  0390                     l1208:
  2220  0390  1439               	bsf	___fldiv@b,0
  2221  0391                     l1210:
  2222  0391  3001               	movlw	1
  2223  0392  00BD               	movwf	??___fldiv
  2224  0393                     u1345:
  2225  0393  1003               	clrc
  2226  0394  0DC9               	rlf	___fldiv@grs,f
  2227  0395  0DCA               	rlf	___fldiv@grs+1,f
  2228  0396  0DCB               	rlf	___fldiv@grs+2,f
  2229  0397  0DCC               	rlf	___fldiv@grs+3,f
  2230  0398  0BBD               	decfsz	??___fldiv,f
  2231  0399  2B93               	goto	u1345
  2232  039A                     l1212:
  2233  039A  0838               	movf	___fldiv@a+3,w
  2234  039B  0245               	subwf	___fldiv@rem+3,w
  2235  039C  1D03               	skipz
  2236  039D  2BA8               	goto	u1355
  2237  039E  0837               	movf	___fldiv@a+2,w
  2238  039F  0244               	subwf	___fldiv@rem+2,w
  2239  03A0  1D03               	skipz
  2240  03A1  2BA8               	goto	u1355
  2241  03A2  0836               	movf	___fldiv@a+1,w
  2242  03A3  0243               	subwf	___fldiv@rem+1,w
  2243  03A4  1D03               	skipz
  2244  03A5  2BA8               	goto	u1355
  2245  03A6  0835               	movf	___fldiv@a,w
  2246  03A7  0242               	subwf	___fldiv@rem,w
  2247  03A8                     u1355:
  2248  03A8  1C03               	skipc
  2249  03A9  2BAB               	goto	u1351
  2250  03AA  2BAC               	goto	u1350
  2251  03AB                     u1351:
  2252  03AB  2BBB               	goto	l1218
  2253  03AC                     u1350:
  2254  03AC                     l1214:
  2255  03AC  174C               	bsf	___fldiv@grs+3,6
  2256  03AD                     l1216:
  2257  03AD  0835               	movf	___fldiv@a,w
  2258  03AE  02C2               	subwf	___fldiv@rem,f
  2259  03AF  0836               	movf	___fldiv@a+1,w
  2260  03B0  1C03               	skipc
  2261  03B1  0F36               	incfsz	___fldiv@a+1,w
  2262  03B2  02C3               	subwf	___fldiv@rem+1,f
  2263  03B3  0837               	movf	___fldiv@a+2,w
  2264  03B4  1C03               	skipc
  2265  03B5  0F37               	incfsz	___fldiv@a+2,w
  2266  03B6  02C4               	subwf	___fldiv@rem+2,f
  2267  03B7  0838               	movf	___fldiv@a+3,w
  2268  03B8  1C03               	skipc
  2269  03B9  0F38               	incfsz	___fldiv@a+3,w
  2270  03BA  02C5               	subwf	___fldiv@rem+3,f
  2271  03BB                     l1218:
  2272  03BB  3001               	movlw	1
  2273  03BC  00BD               	movwf	??___fldiv
  2274  03BD  083D               	movf	??___fldiv,w
  2275  03BE  07CE               	addwf	___fldiv@aexp,f
  2276  03BF                     l1220:
  2277  03BF  301A               	movlw	26
  2278  03C0  024E               	subwf	___fldiv@aexp,w
  2279  03C1  1C03               	skipc
  2280  03C2  2BC4               	goto	u1361
  2281  03C3  2BC5               	goto	u1360
  2282  03C4                     u1361:
  2283  03C4  2B75               	goto	l1202
  2284  03C5                     u1360:
  2285  03C5                     l1222:
  2286  03C5  0845               	movf	___fldiv@rem+3,w
  2287  03C6  0444               	iorwf	___fldiv@rem+2,w
  2288  03C7  0443               	iorwf	___fldiv@rem+1,w
  2289  03C8  0442               	iorwf	___fldiv@rem,w
  2290  03C9  1903               	skipnz
  2291  03CA  2BCC               	goto	u1371
  2292  03CB  2BCD               	goto	u1370
  2293  03CC                     u1371:
  2294  03CC  2BEC               	goto	l1236
  2295  03CD                     u1370:
  2296  03CD                     l1224:
  2297  03CD  1449               	bsf	___fldiv@grs,0
  2298  03CE  2BEC               	goto	l1236
  2299  03CF                     l1226:
  2300  03CF  3001               	movlw	1
  2301  03D0  00BD               	movwf	??___fldiv
  2302  03D1                     u1385:
  2303  03D1  1003               	clrc
  2304  03D2  0DB9               	rlf	___fldiv@b,f
  2305  03D3  0DBA               	rlf	___fldiv@b+1,f
  2306  03D4  0DBB               	rlf	___fldiv@b+2,f
  2307  03D5  0DBC               	rlf	___fldiv@b+3,f
  2308  03D6  0BBD               	decfsz	??___fldiv,f
  2309  03D7  2BD1               	goto	u1385
  2310  03D8                     l1228:
  2311  03D8  1FCC               	btfss	___fldiv@grs+3,7
  2312  03D9  2BDB               	goto	u1391
  2313  03DA  2BDC               	goto	u1390
  2314  03DB                     u1391:
  2315  03DB  2BDD               	goto	l1232
  2316  03DC                     u1390:
  2317  03DC                     l1230:
  2318  03DC  1439               	bsf	___fldiv@b,0
  2319  03DD                     l1232:
  2320  03DD  3001               	movlw	1
  2321  03DE  00BD               	movwf	??___fldiv
  2322  03DF                     u1405:
  2323  03DF  1003               	clrc
  2324  03E0  0DC9               	rlf	___fldiv@grs,f
  2325  03E1  0DCA               	rlf	___fldiv@grs+1,f
  2326  03E2  0DCB               	rlf	___fldiv@grs+2,f
  2327  03E3  0DCC               	rlf	___fldiv@grs+3,f
  2328  03E4  0BBD               	decfsz	??___fldiv,f
  2329  03E5  2BDF               	goto	u1405
  2330  03E6                     l1234:
  2331  03E6  30FF               	movlw	255
  2332  03E7  07C7               	addwf	___fldiv@new_exp,f
  2333  03E8  1803               	skipnc
  2334  03E9  0AC8               	incf	___fldiv@new_exp+1,f
  2335  03EA  30FF               	movlw	255
  2336  03EB  07C8               	addwf	___fldiv@new_exp+1,f
  2337  03EC                     l1236:
  2338  03EC  1FBB               	btfss	___fldiv@b+2,7
  2339  03ED  2BEF               	goto	u1411
  2340  03EE  2BF0               	goto	u1410
  2341  03EF                     u1411:
  2342  03EF  2BCF               	goto	l1226
  2343  03F0                     u1410:
  2344  03F0                     l1238:
  2345  03F0  01CE               	clrf	___fldiv@aexp
  2346  03F1                     l1240:
  2347  03F1  1FCC               	btfss	___fldiv@grs+3,7
  2348  03F2  2BF4               	goto	u1421
  2349  03F3  2BF5               	goto	u1420
  2350  03F4                     u1421:
  2351  03F4  2C11               	goto	l1248
  2352  03F5                     u1420:
  2353  03F5                     l1242:
  2354  03F5  30FF               	movlw	255
  2355  03F6  0549               	andwf	___fldiv@grs,w
  2356  03F7  00BD               	movwf	??___fldiv
  2357  03F8  30FF               	movlw	255
  2358  03F9  054A               	andwf	___fldiv@grs+1,w
  2359  03FA  00BE               	movwf	??___fldiv+1
  2360  03FB  30FF               	movlw	255
  2361  03FC  054B               	andwf	___fldiv@grs+2,w
  2362  03FD  00BF               	movwf	??___fldiv+2
  2363  03FE  307F               	movlw	127
  2364  03FF  054C               	andwf	___fldiv@grs+3,w
  2365  0400  00C0               	movwf	??___fldiv+3
  2366  0401  0840               	movf	??___fldiv+3,w
  2367  0402  043F               	iorwf	??___fldiv+2,w
  2368  0403  043E               	iorwf	??___fldiv+1,w
  2369  0404  043D               	iorwf	??___fldiv,w
  2370  0405  1903               	skipnz
  2371  0406  2C08               	goto	u1431
  2372  0407  2C09               	goto	u1430
  2373  0408                     u1431:
  2374  0408  2C0C               	goto	l489
  2375  0409                     u1430:
  2376  0409                     l1244:
  2377  0409  01CE               	clrf	___fldiv@aexp
  2378  040A  0ACE               	incf	___fldiv@aexp,f
  2379  040B  2C11               	goto	l1248
  2380  040C                     l489:
  2381  040C  1C39               	btfss	___fldiv@b,0
  2382  040D  2C0F               	goto	u1441
  2383  040E  2C10               	goto	u1440
  2384  040F                     u1441:
  2385  040F  2C11               	goto	l1248
  2386  0410                     u1440:
  2387  0410  2C09               	goto	l1244
  2388  0411                     l1248:
  2389  0411  084E               	movf	___fldiv@aexp,w
  2390  0412  1903               	btfsc	3,2
  2391  0413  2C15               	goto	u1451
  2392  0414  2C16               	goto	u1450
  2393  0415                     u1451:
  2394  0415  2C47               	goto	l1258
  2395  0416                     u1450:
  2396  0416                     l1250:
  2397  0416  3001               	movlw	1
  2398  0417  07B9               	addwf	___fldiv@b,f
  2399  0418  3000               	movlw	0
  2400  0419  1803               	skipnc
  2401  041A  3001               	movlw	1
  2402  041B  07BA               	addwf	___fldiv@b+1,f
  2403  041C  3000               	movlw	0
  2404  041D  1803               	skipnc
  2405  041E  3001               	movlw	1
  2406  041F  07BB               	addwf	___fldiv@b+2,f
  2407  0420  3000               	movlw	0
  2408  0421  1803               	skipnc
  2409  0422  3001               	movlw	1
  2410  0423  07BC               	addwf	___fldiv@b+3,f
  2411  0424                     l1252:
  2412  0424  1C3C               	btfss	___fldiv@b+3,0
  2413  0425  2C27               	goto	u1461
  2414  0426  2C28               	goto	u1460
  2415  0427                     u1461:
  2416  0427  2C47               	goto	l1258
  2417  0428                     u1460:
  2418  0428                     l1254:
  2419  0428  0839               	movf	___fldiv@b,w
  2420  0429  00BD               	movwf	??___fldiv
  2421  042A  083A               	movf	___fldiv@b+1,w
  2422  042B  00BE               	movwf	??___fldiv+1
  2423  042C  083B               	movf	___fldiv@b+2,w
  2424  042D  00BF               	movwf	??___fldiv+2
  2425  042E  083C               	movf	___fldiv@b+3,w
  2426  042F  00C0               	movwf	??___fldiv+3
  2427  0430  3001               	movlw	1
  2428  0431  00C1               	movwf	??___fldiv+4
  2429  0432                     u1475:
  2430  0432  0D40               	rlf	??___fldiv+3,w
  2431  0433  0CC0               	rrf	??___fldiv+3,f
  2432  0434  0CBF               	rrf	??___fldiv+2,f
  2433  0435  0CBE               	rrf	??___fldiv+1,f
  2434  0436  0CBD               	rrf	??___fldiv,f
  2435  0437                     u1470:
  2436  0437  0BC1               	decfsz	??___fldiv+4,f
  2437  0438  2C32               	goto	u1475
  2438  0439  0840               	movf	??___fldiv+3,w
  2439  043A  00BC               	movwf	___fldiv@b+3
  2440  043B  083F               	movf	??___fldiv+2,w
  2441  043C  00BB               	movwf	___fldiv@b+2
  2442  043D  083E               	movf	??___fldiv+1,w
  2443  043E  00BA               	movwf	___fldiv@b+1
  2444  043F  083D               	movf	??___fldiv,w
  2445  0440  00B9               	movwf	___fldiv@b
  2446  0441                     l1256:
  2447  0441  3001               	movlw	1
  2448  0442  07C7               	addwf	___fldiv@new_exp,f
  2449  0443  1803               	skipnc
  2450  0444  0AC8               	incf	___fldiv@new_exp+1,f
  2451  0445  3000               	movlw	0
  2452  0446  07C8               	addwf	___fldiv@new_exp+1,f
  2453  0447                     l1258:
  2454  0447  0848               	movf	___fldiv@new_exp+1,w
  2455  0448  3A80               	xorlw	128
  2456  0449  00FF               	movwf	btemp+1
  2457  044A  3080               	movlw	128
  2458  044B  027F               	subwf	btemp+1,w
  2459  044C  1D03               	skipz
  2460  044D  2C50               	goto	u1485
  2461  044E  30FF               	movlw	255
  2462  044F  0247               	subwf	___fldiv@new_exp,w
  2463  0450                     u1485:
  2464  0450  1C03               	skipc
  2465  0451  2C53               	goto	u1481
  2466  0452  2C54               	goto	u1480
  2467  0453                     u1481:
  2468  0453  2C62               	goto	l1262
  2469  0454                     u1480:
  2470  0454                     l1260:
  2471  0454  30FF               	movlw	255
  2472  0455  1283               	bcf	3,5	;RP0=0, select bank0
  2473  0456  1303               	bcf	3,6	;RP1=0, select bank0
  2474  0457  00C7               	movwf	___fldiv@new_exp
  2475  0458  3000               	movlw	0
  2476  0459  00C8               	movwf	___fldiv@new_exp+1
  2477  045A  3000               	movlw	0
  2478  045B  00BC               	movwf	___fldiv@b+3
  2479  045C  3000               	movlw	0
  2480  045D  00BB               	movwf	___fldiv@b+2
  2481  045E  3000               	movlw	0
  2482  045F  00BA               	movwf	___fldiv@b+1
  2483  0460  3000               	movlw	0
  2484  0461  00B9               	movwf	___fldiv@b
  2485  0462                     l1262:
  2486  0462  1283               	bcf	3,5	;RP0=0, select bank0
  2487  0463  1303               	bcf	3,6	;RP1=0, select bank0
  2488  0464  0848               	movf	___fldiv@new_exp+1,w
  2489  0465  3A80               	xorlw	128
  2490  0466  00FF               	movwf	btemp+1
  2491  0467  3080               	movlw	128
  2492  0468  027F               	subwf	btemp+1,w
  2493  0469  1D03               	skipz
  2494  046A  2C6D               	goto	u1495
  2495  046B  3001               	movlw	1
  2496  046C  0247               	subwf	___fldiv@new_exp,w
  2497  046D                     u1495:
  2498  046D  1803               	skipnc
  2499  046E  2C70               	goto	u1491
  2500  046F  2C71               	goto	u1490
  2501  0470                     u1491:
  2502  0470  2C7E               	goto	l495
  2503  0471                     u1490:
  2504  0471                     l1264:
  2505  0471  1283               	bcf	3,5	;RP0=0, select bank0
  2506  0472  1303               	bcf	3,6	;RP1=0, select bank0
  2507  0473  01C7               	clrf	___fldiv@new_exp
  2508  0474  01C8               	clrf	___fldiv@new_exp+1
  2509  0475                     l1266:
  2510  0475  3000               	movlw	0
  2511  0476  00BC               	movwf	___fldiv@b+3
  2512  0477  3000               	movlw	0
  2513  0478  00BB               	movwf	___fldiv@b+2
  2514  0479  3000               	movlw	0
  2515  047A  00BA               	movwf	___fldiv@b+1
  2516  047B  3000               	movlw	0
  2517  047C  00B9               	movwf	___fldiv@b
  2518  047D                     l1268:
  2519  047D  01C6               	clrf	___fldiv@sign
  2520  047E                     l495:
  2521  047E  1283               	bcf	3,5	;RP0=0, select bank0
  2522  047F  1303               	bcf	3,6	;RP1=0, select bank0
  2523  0480  0847               	movf	___fldiv@new_exp,w
  2524  0481  00BD               	movwf	??___fldiv
  2525  0482  083D               	movf	??___fldiv,w
  2526  0483  00CD               	movwf	___fldiv@bexp
  2527  0484                     l1270:
  2528  0484  1C4D               	btfss	___fldiv@bexp,0
  2529  0485  2C87               	goto	u1501
  2530  0486  2C88               	goto	u1500
  2531  0487                     u1501:
  2532  0487  2C8A               	goto	l1274
  2533  0488                     u1500:
  2534  0488                     l1272:
  2535  0488  17BB               	bsf	___fldiv@b+2,7
  2536  0489  2C8E               	goto	l497
  2537  048A                     l1274:
  2538  048A  307F               	movlw	127
  2539  048B  00BD               	movwf	??___fldiv
  2540  048C  083D               	movf	??___fldiv,w
  2541  048D  05BB               	andwf	___fldiv@b+2,f
  2542  048E                     l497:
  2543  048E  084D               	movf	___fldiv@bexp,w
  2544  048F  00BD               	movwf	??___fldiv
  2545  0490  1003               	clrc
  2546  0491  0C3D               	rrf	??___fldiv,w
  2547  0492  00BE               	movwf	??___fldiv+1
  2548  0493  083E               	movf	??___fldiv+1,w
  2549  0494  00BC               	movwf	___fldiv@b+3
  2550  0495  0846               	movf	___fldiv@sign,w
  2551  0496  00BD               	movwf	??___fldiv
  2552  0497  083D               	movf	??___fldiv,w
  2553  0498  04BC               	iorwf	___fldiv@b+3,f
  2554  0499  2B32               	goto	l1182
  2555  049A                     l475:
  2556  049A  0008               	return
  2557  049B                     __end_of___fldiv:
  2558                           
  2559                           	psect	text5
  2560  007D                     __ptext5:	
  2561 ;; *************** function _ADC_readChannel *****************
  2562 ;; Defined at:
  2563 ;;		line 15 in file "ldr_sensor.c"
  2564 ;; Parameters:    Size  Location     Type
  2565 ;;  channel         2    0[BANK0 ] unsigned int 
  2566 ;; Auto vars:     Size  Location     Type
  2567 ;;		None
  2568 ;; Return value:  Size  Location     Type
  2569 ;;                  4    0[BANK0 ] unsigned int 
  2570 ;; Registers used:
  2571 ;;		wreg, status,2, status,0, btemp+1, pclath, cstack
  2572 ;; Tracked objects:
  2573 ;;		On entry : 0/0
  2574 ;;		On exit  : 0/0
  2575 ;;		Unchanged: 0/0
  2576 ;; Data sizes:     COMMON   BANK0   BANK1   BANK3   BANK2
  2577 ;;      Params:         0       4       0       0       0
  2578 ;;      Locals:         0       0       0       0       0
  2579 ;;      Temps:          0       2       0       0       0
  2580 ;;      Totals:         0       6       0       0       0
  2581 ;;Total ram usage:        6 bytes
  2582 ;; Hardware stack levels used: 1
  2583 ;; Hardware stack levels required when called: 1
  2584 ;; This function calls:
  2585 ;;		___xxtofl
  2586 ;; This function is called by:
  2587 ;;		_main
  2588 ;; This function uses a non-reentrant model
  2589 ;;
  2590                           
  2591                           
  2592                           ;psect for function _ADC_readChannel
  2593  007D                     _ADC_readChannel:
  2594  007D                     l1102:	
  2595                           ;incstack = 0
  2596                           ; Regs used in _ADC_readChannel: [wreg+status,2+status,0+btemp+1+pclath+cstack]
  2597                           
  2598                           
  2599                           ;ldr_sensor.c: 16:     if(channel > 13){
  2600  007D  3000               	movlw	0
  2601  007E  1283               	bcf	3,5	;RP0=0, select bank0
  2602  007F  1303               	bcf	3,6	;RP1=0, select bank0
  2603  0080  0221               	subwf	ADC_readChannel@channel+1,w
  2604  0081  300E               	movlw	14
  2605  0082  1903               	skipnz
  2606  0083  0220               	subwf	ADC_readChannel@channel,w
  2607  0084  1C03               	skipc
  2608  0085  2887               	goto	u1121
  2609  0086  2888               	goto	u1120
  2610  0087                     u1121:
  2611  0087  2891               	goto	l1108
  2612  0088                     u1120:
  2613  0088                     l1104:
  2614                           
  2615                           ;ldr_sensor.c: 17:         return 0;
  2616  0088  3000               	movlw	0
  2617  0089  00A3               	movwf	?_ADC_readChannel+3
  2618  008A  3000               	movlw	0
  2619  008B  00A2               	movwf	?_ADC_readChannel+2
  2620  008C  3000               	movlw	0
  2621  008D  00A1               	movwf	?_ADC_readChannel+1
  2622  008E  3000               	movlw	0
  2623  008F  00A0               	movwf	?_ADC_readChannel
  2624  0090  28DB               	goto	l25
  2625  0091                     l1108:
  2626                           
  2627                           ;ldr_sensor.c: 19:     ADCON0 &= 0xC5;
  2628  0091  30C5               	movlw	197
  2629  0092  00A4               	movwf	??_ADC_readChannel
  2630  0093  0824               	movf	??_ADC_readChannel,w
  2631  0094  059F               	andwf	31,f	;volatile
  2632                           
  2633                           ;ldr_sensor.c: 20:     ADCON0 |= channel << 3;
  2634  0095  0820               	movf	ADC_readChannel@channel,w	;volatile
  2635  0096  00A4               	movwf	??_ADC_readChannel
  2636  0097  3002               	movlw	2
  2637  0098                     u1135:
  2638  0098  1003               	clrc
  2639  0099  0DA4               	rlf	??_ADC_readChannel,f
  2640  009A  3EFF               	addlw	-1
  2641  009B  1D03               	skipz
  2642  009C  2898               	goto	u1135
  2643  009D  1003               	clrc
  2644  009E  0D24               	rlf	??_ADC_readChannel,w
  2645  009F  00A5               	movwf	??_ADC_readChannel+1
  2646  00A0  0825               	movf	??_ADC_readChannel+1,w
  2647  00A1  049F               	iorwf	31,f	;volatile
  2648  00A2                     l1110:
  2649                           
  2650                           ;ldr_sensor.c: 21:     _delay((unsigned long)((2)*(8000000/4000.0)));
  2651  00A2  3006               	movlw	6
  2652  00A3  1283               	bcf	3,5	;RP0=0, select bank0
  2653  00A4  1303               	bcf	3,6	;RP1=0, select bank0
  2654  00A5  00A5               	movwf	??_ADC_readChannel+1
  2655  00A6  302F               	movlw	47
  2656  00A7  00A4               	movwf	??_ADC_readChannel
  2657  00A8                     u1897:
  2658  00A8  0BA4               	decfsz	??_ADC_readChannel,f
  2659  00A9  28A8               	goto	u1897
  2660  00AA  0BA5               	decfsz	??_ADC_readChannel+1,f
  2661  00AB  28A8               	goto	u1897
  2662  00AC  28AD               	nop2
  2663  00AD                     l1112:
  2664                           
  2665                           ;ldr_sensor.c: 22:     GO_nDONE = 1;
  2666  00AD  1283               	bcf	3,5	;RP0=0, select bank0
  2667  00AE  1303               	bcf	3,6	;RP1=0, select bank0
  2668  00AF  151F               	bsf	31,2	;volatile
  2669  00B0                     l26:	
  2670                           ;ldr_sensor.c: 23:     while(GO_nDONE);
  2671                           
  2672  00B0  191F               	btfsc	31,2	;volatile
  2673  00B1  28B3               	goto	u1141
  2674  00B2  28B4               	goto	u1140
  2675  00B3                     u1141:
  2676  00B3  28B0               	goto	l26
  2677  00B4                     u1140:
  2678  00B4                     l1114:
  2679                           
  2680                           ;ldr_sensor.c: 24:     return ((ADRESH << 8) + ADRESL);
  2681  00B4  081E               	movf	30,w	;volatile
  2682  00B5  00A4               	movwf	??_ADC_readChannel
  2683  00B6  01A5               	clrf	??_ADC_readChannel+1
  2684  00B7  0824               	movf	??_ADC_readChannel,w
  2685  00B8  00A5               	movwf	??_ADC_readChannel+1
  2686  00B9  01A4               	clrf	??_ADC_readChannel
  2687  00BA  1683               	bsf	3,5	;RP0=1, select bank1
  2688  00BB  1303               	bcf	3,6	;RP1=0, select bank1
  2689  00BC  081E               	movf	30,w	;volatile
  2690  00BD  1283               	bcf	3,5	;RP0=0, select bank0
  2691  00BE  1303               	bcf	3,6	;RP1=0, select bank0
  2692  00BF  0724               	addwf	??_ADC_readChannel,w
  2693  00C0  00F0               	movwf	___xxtofl@val
  2694  00C1  3000               	movlw	0
  2695  00C2  1803               	skipnc
  2696  00C3  3001               	movlw	1
  2697  00C4  0725               	addwf	??_ADC_readChannel+1,w
  2698  00C5  00F1               	movwf	___xxtofl@val+1
  2699  00C6  01F2               	clrf	___xxtofl@val+2
  2700  00C7  1BF1               	btfsc	___xxtofl@val+1,7
  2701  00C8  03F2               	decf	___xxtofl@val+2,f
  2702  00C9  0872               	movf	___xxtofl@val+2,w
  2703  00CA  00F3               	movwf	___xxtofl@val+3
  2704  00CB  3001               	movlw	1
  2705  00CC  120A  118A  2204  120A  118A  	fcall	___xxtofl
  2706  00D1  0873               	movf	?___xxtofl+3,w
  2707  00D2  1283               	bcf	3,5	;RP0=0, select bank0
  2708  00D3  1303               	bcf	3,6	;RP1=0, select bank0
  2709  00D4  00A3               	movwf	?_ADC_readChannel+3
  2710  00D5  0872               	movf	?___xxtofl+2,w
  2711  00D6  00A2               	movwf	?_ADC_readChannel+2
  2712  00D7  0871               	movf	?___xxtofl+1,w
  2713  00D8  00A1               	movwf	?_ADC_readChannel+1
  2714  00D9  0870               	movf	?___xxtofl,w
  2715  00DA  00A0               	movwf	?_ADC_readChannel
  2716  00DB                     l25:
  2717  00DB  0008               	return
  2718  00DC                     __end_of_ADC_readChannel:
  2719                           
  2720                           	psect	text6
  2721  0204                     __ptext6:	
  2722 ;; *************** function ___xxtofl *****************
  2723 ;; Defined at:
  2724 ;;		line 10 in file "C:\Program Files\Microchip\xc8\v2.32\pic\sources\c90\common\xxtofl.c"
  2725 ;; Parameters:    Size  Location     Type
  2726 ;;  sign            1    wreg     unsigned char 
  2727 ;;  val             4    0[COMMON] long 
  2728 ;; Auto vars:     Size  Location     Type
  2729 ;;  sign            1    8[COMMON] unsigned char 
  2730 ;;  arg             4   10[COMMON] unsigned long 
  2731 ;;  exp             1    9[COMMON] unsigned char 
  2732 ;; Return value:  Size  Location     Type
  2733 ;;                  4    0[COMMON] unsigned char 
  2734 ;; Registers used:
  2735 ;;		wreg, status,2, status,0
  2736 ;; Tracked objects:
  2737 ;;		On entry : 0/0
  2738 ;;		On exit  : 0/0
  2739 ;;		Unchanged: 0/0
  2740 ;; Data sizes:     COMMON   BANK0   BANK1   BANK3   BANK2
  2741 ;;      Params:         4       0       0       0       0
  2742 ;;      Locals:         6       0       0       0       0
  2743 ;;      Temps:          4       0       0       0       0
  2744 ;;      Totals:        14       0       0       0       0
  2745 ;;Total ram usage:       14 bytes
  2746 ;; Hardware stack levels used: 1
  2747 ;; This function calls:
  2748 ;;		Nothing
  2749 ;; This function is called by:
  2750 ;;		_ADC_readChannel
  2751 ;; This function uses a non-reentrant model
  2752 ;;
  2753                           
  2754                           
  2755                           ;psect for function ___xxtofl
  2756  0204                     ___xxtofl:
  2757                           
  2758                           ;incstack = 0
  2759                           ; Regs used in ___xxtofl: [wreg+status,2+status,0]
  2760                           ;___xxtofl@sign stored from wreg
  2761  0204  00F8               	movwf	___xxtofl@sign
  2762  0205                     l1056:
  2763  0205  0878               	movf	___xxtofl@sign,w
  2764  0206  1903               	btfsc	3,2
  2765  0207  2A09               	goto	u981
  2766  0208  2A0A               	goto	u980
  2767  0209                     u981:
  2768  0209  2A1E               	goto	l1062
  2769  020A                     u980:
  2770  020A                     l1058:
  2771  020A  1FF3               	btfss	___xxtofl@val+3,7
  2772  020B  2A0D               	goto	u991
  2773  020C  2A0E               	goto	u990
  2774  020D                     u991:
  2775  020D  2A1E               	goto	l1062
  2776  020E                     u990:
  2777  020E                     l1060:
  2778  020E  0970               	comf	___xxtofl@val,w
  2779  020F  00FA               	movwf	___xxtofl@arg
  2780  0210  0971               	comf	___xxtofl@val+1,w
  2781  0211  00FB               	movwf	___xxtofl@arg+1
  2782  0212  0972               	comf	___xxtofl@val+2,w
  2783  0213  00FC               	movwf	___xxtofl@arg+2
  2784  0214  0973               	comf	___xxtofl@val+3,w
  2785  0215  00FD               	movwf	___xxtofl@arg+3
  2786  0216  0AFA               	incf	___xxtofl@arg,f
  2787  0217  1903               	skipnz
  2788  0218  0AFB               	incf	___xxtofl@arg+1,f
  2789  0219  1903               	skipnz
  2790  021A  0AFC               	incf	___xxtofl@arg+2,f
  2791  021B  1903               	skipnz
  2792  021C  0AFD               	incf	___xxtofl@arg+3,f
  2793  021D  2A26               	goto	l557
  2794  021E                     l1062:
  2795  021E  0873               	movf	___xxtofl@val+3,w
  2796  021F  00FD               	movwf	___xxtofl@arg+3
  2797  0220  0872               	movf	___xxtofl@val+2,w
  2798  0221  00FC               	movwf	___xxtofl@arg+2
  2799  0222  0871               	movf	___xxtofl@val+1,w
  2800  0223  00FB               	movwf	___xxtofl@arg+1
  2801  0224  0870               	movf	___xxtofl@val,w
  2802  0225  00FA               	movwf	___xxtofl@arg
  2803  0226                     l557:
  2804  0226  0873               	movf	___xxtofl@val+3,w
  2805  0227  0472               	iorwf	___xxtofl@val+2,w
  2806  0228  0471               	iorwf	___xxtofl@val+1,w
  2807  0229  0470               	iorwf	___xxtofl@val,w
  2808  022A  1D03               	skipz
  2809  022B  2A2D               	goto	u1001
  2810  022C  2A2E               	goto	u1000
  2811  022D                     u1001:
  2812  022D  2A37               	goto	l1068
  2813  022E                     u1000:
  2814  022E                     l1064:
  2815  022E  3000               	movlw	0
  2816  022F  00F3               	movwf	?___xxtofl+3
  2817  0230  3000               	movlw	0
  2818  0231  00F2               	movwf	?___xxtofl+2
  2819  0232  3000               	movlw	0
  2820  0233  00F1               	movwf	?___xxtofl+1
  2821  0234  3000               	movlw	0
  2822  0235  00F0               	movwf	?___xxtofl
  2823  0236  2ABD               	goto	l559
  2824  0237                     l1068:
  2825  0237  3096               	movlw	150
  2826  0238  00F4               	movwf	??___xxtofl
  2827  0239  0874               	movf	??___xxtofl,w
  2828  023A  00F9               	movwf	___xxtofl@exp
  2829  023B  2A49               	goto	l1072
  2830  023C                     l1070:
  2831  023C  3001               	movlw	1
  2832  023D  00F4               	movwf	??___xxtofl
  2833  023E  0874               	movf	??___xxtofl,w
  2834  023F  07F9               	addwf	___xxtofl@exp,f
  2835  0240  3001               	movlw	1
  2836  0241                     u1015:
  2837  0241  1003               	clrc
  2838  0242  0CFD               	rrf	___xxtofl@arg+3,f
  2839  0243  0CFC               	rrf	___xxtofl@arg+2,f
  2840  0244  0CFB               	rrf	___xxtofl@arg+1,f
  2841  0245  0CFA               	rrf	___xxtofl@arg,f
  2842  0246  3EFF               	addlw	-1
  2843  0247  1D03               	skipz
  2844  0248  2A41               	goto	u1015
  2845  0249                     l1072:
  2846  0249  30FE               	movlw	254
  2847  024A  057D               	andwf	___xxtofl@arg+3,w
  2848  024B  1D03               	btfss	3,2
  2849  024C  2A4E               	goto	u1021
  2850  024D  2A4F               	goto	u1020
  2851  024E                     u1021:
  2852  024E  2A3C               	goto	l1070
  2853  024F                     u1020:
  2854  024F  2A6B               	goto	l563
  2855  0250                     l1074:
  2856  0250  3001               	movlw	1
  2857  0251  00F4               	movwf	??___xxtofl
  2858  0252  0874               	movf	??___xxtofl,w
  2859  0253  07F9               	addwf	___xxtofl@exp,f
  2860  0254                     l1076:
  2861  0254  3001               	movlw	1
  2862  0255  07FA               	addwf	___xxtofl@arg,f
  2863  0256  3000               	movlw	0
  2864  0257  1803               	skipnc
  2865  0258  3001               	movlw	1
  2866  0259  07FB               	addwf	___xxtofl@arg+1,f
  2867  025A  3000               	movlw	0
  2868  025B  1803               	skipnc
  2869  025C  3001               	movlw	1
  2870  025D  07FC               	addwf	___xxtofl@arg+2,f
  2871  025E  3000               	movlw	0
  2872  025F  1803               	skipnc
  2873  0260  3001               	movlw	1
  2874  0261  07FD               	addwf	___xxtofl@arg+3,f
  2875  0262                     l1078:
  2876  0262  3001               	movlw	1
  2877  0263                     u1035:
  2878  0263  1003               	clrc
  2879  0264  0CFD               	rrf	___xxtofl@arg+3,f
  2880  0265  0CFC               	rrf	___xxtofl@arg+2,f
  2881  0266  0CFB               	rrf	___xxtofl@arg+1,f
  2882  0267  0CFA               	rrf	___xxtofl@arg,f
  2883  0268  3EFF               	addlw	-1
  2884  0269  1D03               	skipz
  2885  026A  2A63               	goto	u1035
  2886  026B                     l563:
  2887  026B  30FF               	movlw	255
  2888  026C  057D               	andwf	___xxtofl@arg+3,w
  2889  026D  1D03               	btfss	3,2
  2890  026E  2A70               	goto	u1041
  2891  026F  2A71               	goto	u1040
  2892  0270                     u1041:
  2893  0270  2A50               	goto	l1074
  2894  0271                     u1040:
  2895  0271  2A7D               	goto	l1082
  2896  0272                     l1080:
  2897  0272  3001               	movlw	1
  2898  0273  02F9               	subwf	___xxtofl@exp,f
  2899  0274  3001               	movlw	1
  2900  0275  00F4               	movwf	??___xxtofl
  2901  0276                     u1055:
  2902  0276  1003               	clrc
  2903  0277  0DFA               	rlf	___xxtofl@arg,f
  2904  0278  0DFB               	rlf	___xxtofl@arg+1,f
  2905  0279  0DFC               	rlf	___xxtofl@arg+2,f
  2906  027A  0DFD               	rlf	___xxtofl@arg+3,f
  2907  027B  0BF4               	decfsz	??___xxtofl,f
  2908  027C  2A76               	goto	u1055
  2909  027D                     l1082:
  2910  027D  1BFC               	btfsc	___xxtofl@arg+2,7
  2911  027E  2A80               	goto	u1061
  2912  027F  2A81               	goto	u1060
  2913  0280                     u1061:
  2914  0280  2A87               	goto	l570
  2915  0281                     u1060:
  2916  0281                     l1084:
  2917  0281  3002               	movlw	2
  2918  0282  0279               	subwf	___xxtofl@exp,w
  2919  0283  1803               	skipnc
  2920  0284  2A86               	goto	u1071
  2921  0285  2A87               	goto	u1070
  2922  0286                     u1071:
  2923  0286  2A72               	goto	l1080
  2924  0287                     u1070:
  2925  0287                     l570:
  2926  0287  1879               	btfsc	___xxtofl@exp,0
  2927  0288  2A8A               	goto	u1081
  2928  0289  2A8B               	goto	u1080
  2929  028A                     u1081:
  2930  028A  2A93               	goto	l571
  2931  028B                     u1080:
  2932  028B                     l1086:
  2933  028B  30FF               	movlw	255
  2934  028C  05FA               	andwf	___xxtofl@arg,f
  2935  028D  30FF               	movlw	255
  2936  028E  05FB               	andwf	___xxtofl@arg+1,f
  2937  028F  307F               	movlw	127
  2938  0290  05FC               	andwf	___xxtofl@arg+2,f
  2939  0291  30FF               	movlw	255
  2940  0292  05FD               	andwf	___xxtofl@arg+3,f
  2941  0293                     l571:
  2942  0293  1003               	clrc
  2943  0294  0CF9               	rrf	___xxtofl@exp,f
  2944  0295                     l1088:
  2945  0295  0879               	movf	___xxtofl@exp,w
  2946  0296  00F4               	movwf	??___xxtofl
  2947  0297  01F5               	clrf	??___xxtofl+1
  2948  0298  01F6               	clrf	??___xxtofl+2
  2949  0299  01F7               	clrf	??___xxtofl+3
  2950  029A  3018               	movlw	24
  2951  029B                     u1095:
  2952  029B  1003               	clrc
  2953  029C  0DF4               	rlf	??___xxtofl,f
  2954  029D  0DF5               	rlf	??___xxtofl+1,f
  2955  029E  0DF6               	rlf	??___xxtofl+2,f
  2956  029F  0DF7               	rlf	??___xxtofl+3,f
  2957  02A0                     u1090:
  2958  02A0  3EFF               	addlw	-1
  2959  02A1  1D03               	skipz
  2960  02A2  2A9B               	goto	u1095
  2961  02A3  0874               	movf	??___xxtofl,w
  2962  02A4  04FA               	iorwf	___xxtofl@arg,f
  2963  02A5  0875               	movf	??___xxtofl+1,w
  2964  02A6  04FB               	iorwf	___xxtofl@arg+1,f
  2965  02A7  0876               	movf	??___xxtofl+2,w
  2966  02A8  04FC               	iorwf	___xxtofl@arg+2,f
  2967  02A9  0877               	movf	??___xxtofl+3,w
  2968  02AA  04FD               	iorwf	___xxtofl@arg+3,f
  2969  02AB                     l1090:
  2970  02AB  0878               	movf	___xxtofl@sign,w
  2971  02AC  1903               	btfsc	3,2
  2972  02AD  2AAF               	goto	u1101
  2973  02AE  2AB0               	goto	u1100
  2974  02AF                     u1101:
  2975  02AF  2AB5               	goto	l1096
  2976  02B0                     u1100:
  2977  02B0                     l1092:
  2978  02B0  1FF3               	btfss	___xxtofl@val+3,7
  2979  02B1  2AB3               	goto	u1111
  2980  02B2  2AB4               	goto	u1110
  2981  02B3                     u1111:
  2982  02B3  2AB5               	goto	l1096
  2983  02B4                     u1110:
  2984  02B4                     l1094:
  2985  02B4  17FD               	bsf	___xxtofl@arg+3,7
  2986  02B5                     l1096:
  2987  02B5  087D               	movf	___xxtofl@arg+3,w
  2988  02B6  00F3               	movwf	?___xxtofl+3
  2989  02B7  087C               	movf	___xxtofl@arg+2,w
  2990  02B8  00F2               	movwf	?___xxtofl+2
  2991  02B9  087B               	movf	___xxtofl@arg+1,w
  2992  02BA  00F1               	movwf	?___xxtofl+1
  2993  02BB  087A               	movf	___xxtofl@arg,w
  2994  02BC  00F0               	movwf	?___xxtofl
  2995  02BD                     l559:
  2996  02BD  0008               	return
  2997  02BE                     __end_of___xxtofl:
  2998                           
  2999                           	psect	text7
  3000  004D                     __ptext7:	
  3001 ;; *************** function _ADC_init *****************
  3002 ;; Defined at:
  3003 ;;		line 10 in file "ldr_sensor.c"
  3004 ;; Parameters:    Size  Location     Type
  3005 ;;		None
  3006 ;; Auto vars:     Size  Location     Type
  3007 ;;		None
  3008 ;; Return value:  Size  Location     Type
  3009 ;;                  1    wreg      void 
  3010 ;; Registers used:
  3011 ;;		wreg
  3012 ;; Tracked objects:
  3013 ;;		On entry : 0/0
  3014 ;;		On exit  : 0/0
  3015 ;;		Unchanged: 0/0
  3016 ;; Data sizes:     COMMON   BANK0   BANK1   BANK3   BANK2
  3017 ;;      Params:         0       0       0       0       0
  3018 ;;      Locals:         0       0       0       0       0
  3019 ;;      Temps:          0       0       0       0       0
  3020 ;;      Totals:         0       0       0       0       0
  3021 ;;Total ram usage:        0 bytes
  3022 ;; Hardware stack levels used: 1
  3023 ;; This function calls:
  3024 ;;		Nothing
  3025 ;; This function is called by:
  3026 ;;		_main
  3027 ;; This function uses a non-reentrant model
  3028 ;;
  3029                           
  3030                           
  3031                           ;psect for function _ADC_init
  3032  004D                     _ADC_init:
  3033  004D                     l1100:	
  3034                           ;incstack = 0
  3035                           ; Regs used in _ADC_init: [wreg]
  3036                           
  3037                           
  3038                           ;ldr_sensor.c: 11:     ADCON0 = 0x41;
  3039  004D  3041               	movlw	65
  3040  004E  1283               	bcf	3,5	;RP0=0, select bank0
  3041  004F  1303               	bcf	3,6	;RP1=0, select bank0
  3042  0050  009F               	movwf	31	;volatile
  3043                           
  3044                           ;ldr_sensor.c: 12:     ADCON1 = 0xC0;
  3045  0051  30C0               	movlw	192
  3046  0052  1683               	bsf	3,5	;RP0=1, select bank1
  3047  0053  1303               	bcf	3,6	;RP1=0, select bank1
  3048  0054  009F               	movwf	31	;volatile
  3049  0055                     l21:
  3050  0055  0008               	return
  3051  0056                     __end_of_ADC_init:
  3052  007E                     btemp	set	126	;btemp
  3053  007E                     wtemp0	set	126
  3054                           
  3055                           	psect	config
  3056                           
  3057                           ;Config register CONFIG @ 0x2007
  3058                           ;	Oscillator Selection bits
  3059                           ;	FOSC = HS, HS oscillator
  3060                           ;	Watchdog Timer Enable bit
  3061                           ;	WDTE = ON, WDT enabled
  3062                           ;	Power-up Timer Enable bit
  3063                           ;	PWRTE = OFF, PWRT disabled
  3064                           ;	Brown-out Reset Enable bit
  3065                           ;	BOREN = ON, BOR enabled
  3066                           ;	Low-Voltage (Single-Supply) In-Circuit Serial Programming Enable bit
  3067                           ;	LVP = ON, RB3/PGM pin has PGM function; low-voltage programming enabled
  3068                           ;	Data EEPROM Memory Code Protection bit
  3069                           ;	CPD = OFF, Data EEPROM code protection off
  3070                           ;	Flash Program Memory Write Enable bits
  3071                           ;	WRT = OFF, Write protection off; all program memory may be written to by EECON control
  3072                           ;	In-Circuit Debugger Mode bit
  3073                           ;	DEBUG = 0x1, unprogrammed default
  3074                           ;	Flash Program Memory Code Protection bit
  3075                           ;	CP = OFF, Code protection off
  3076  2007                     	org	8199
  3077  2007  3FFE               	dw	16382

Data Sizes:
    Strings     0
    Constant    0
    Data        0
    BSS         0
    Persistent  0
    Stack       0

Auto Spaces:
    Space          Size  Autos    Used
    COMMON           14     14      14
    BANK0            80     55      55
    BANK1            80      0       0
    BANK3            96      0       0
    BANK2            96      0       0

Pointer List with Targets:

    None.

Critical Paths under _main in COMMON

    _main->___flmul
    ___flmul->__Umul8_16
    ___fldiv->___flmul
    _ADC_readChannel->___xxtofl

Critical Paths under _main in BANK0

    _main->___fldiv
    ___fldiv->___flmul

Critical Paths under _main in BANK1

    None.

Critical Paths under _main in BANK3

    None.

Critical Paths under _main in BANK2

    None.

Call Graph Tables:

 ---------------------------------------------------------------------------------
 (Depth) Function   	        Calls       Base Space   Used Autos Params    Refs
 ---------------------------------------------------------------------------------
 (0) _main                                                 8     8      0    4590
                                             47 BANK0      8     8      0
                           _ADC_init
                    _ADC_readChannel
                            ___fldiv
                             ___flge
                            ___flmul
 ---------------------------------------------------------------------------------
 (1) ___flmul                                             26    18      8    2417
                                              9 COMMON     5     5      0
                                              0 BANK0     21    13      8
                          __Umul8_16
 ---------------------------------------------------------------------------------
 (2) __Umul8_16                                            9     7      2     799
                                              0 COMMON     9     7      2
 ---------------------------------------------------------------------------------
 (1) ___flge                                              12     4      8     334
                                              0 COMMON    12     4      8
 ---------------------------------------------------------------------------------
 (1) ___fldiv                                             26    18      8    1273
                                             21 BANK0     26    18      8
                            ___flmul (ARG)
 ---------------------------------------------------------------------------------
 (1) _ADC_readChannel                                      6     2      4     518
                                              0 BANK0      6     2      4
                           ___xxtofl
 ---------------------------------------------------------------------------------
 (2) ___xxtofl                                            14    10      4     398
                                              0 COMMON    14    10      4
 ---------------------------------------------------------------------------------
 (1) _ADC_init                                             0     0      0       0
 ---------------------------------------------------------------------------------
 Estimated maximum stack depth 2
 ---------------------------------------------------------------------------------

 Call Graph Graphs:

 _main (ROOT)
   _ADC_init
   _ADC_readChannel
     ___xxtofl
   ___fldiv
     ___flmul (ARG)
       __Umul8_16
   ___flge
   ___flmul

 Address spaces:
Name               Size   Autos  Total    Cost      Usage
BITCOMMON            E      0       0       0        0.0%
EEDATA             100      0       0       0        0.0%
NULL                 0      0       0       0        0.0%
CODE                 0      0       0       0        0.0%
COMMON               E      E       E       1      100.0%
BITSFR0              0      0       0       1        0.0%
SFR0                 0      0       0       1        0.0%
BITSFR1              0      0       0       2        0.0%
SFR1                 0      0       0       2        0.0%
STACK                0      0       0       2        0.0%
ABS                  0      0       0       3        0.0%
BITBANK0            50      0       0       4        0.0%
BITSFR3              0      0       0       4        0.0%
SFR3                 0      0       0       4        0.0%
BANK0               50     37      37       5       68.8%
BITSFR2              0      0       0       5        0.0%
SFR2                 0      0       0       5        0.0%
BITBANK1            50      0       0       6        0.0%
BANK1               50      0       0       7        0.0%
BITBANK3            60      0       0       8        0.0%
BANK3               60      0       0       9        0.0%
BITBANK2            60      0       0      10        0.0%
BANK2               60      0       0      11        0.0%
DATA                 0      0       0      12        0.0%


Microchip Technology PIC Macro Assembler V2.32 build 20210201212658 
Symbol Table                                                                                   Wed Jun 23 14:38:42 2021

            ___fldiv@aexp 004E              ___fldiv@bexp 004D              ___fldiv@sign 0046  
                      l21 0055                        l25 00DB                        l26 00B0  
                      l34 015B       __Umul8_16@word_mpld 0076                       l301 01EA  
                     l302 0203                       l513 07FB                       l532 006A  
                     l525 07EF                       l534 007C                       l519 0767  
                     l473 031A                       l570 0287                       l298 017E  
                     l571 0293                       l563 026B                       l475 049A  
                     l557 0226                       l559 02BD                       l495 047E  
                     l497 048E                       l489 040C                       u950 0064  
                     u951 0063                       u970 0078                       u971 0077  
                     u980 020A                       u981 0209                       u965 006B  
                     u990 020E                       u991 020D              ___flmul@aexp 002D  
            ___flmul@bexp 002E              ___flmul@sign 0028              ___flmul@temp 0033  
            ___flmul@prod 002F                      l1100 004D                      l1110 00A2  
                    l1102 007D                      l1112 00AD                      l1104 0088  
                    l1200 0373                      l1120 0176                      l1114 00B4  
                    l1210 0391                      l1202 0375                      l1130 01C6  
                    l1122 0192                      l1050 0073                      l1042 0057  
                    l1060 020E                      l1108 0091                      l1204 037A  
                    l1212 039A                      l1220 03BF                      l1140 02C5  
                    l1132 0200                      l1124 019A                      l1052 0078  
                    l1044 0059                      l1300 04CE                      l1070 023C  
                    l1062 021E                      l1230 03DC                      l1222 03C5  
                    l1214 03AC                      l1206 038C                      l1150 02DA  
                    l1142 02CB                      l1134 0202                      l1126 019E  
                    l1118 0162                      l1046 0060                      l1310 04E3  
                    l1302 04D4                      l1080 0272                      l1072 0249  
                    l1064 022E                      l1056 0205                      l1240 03F1  
                    l1232 03DD                      l1224 03CD                      l1216 03AD  
                    l1208 0390                      l1160 02F2                      l1152 02E2  
                    l1144 02CF                      l1128 01C2                      l1048 0064  
                    l1400 07AF                      l1320 04FF                      l1312 04EB  
                    l1304 04D8                      l1090 02AB                      l1082 027D  
                    l1074 0250                      l1058 020A                      l1250 0416  
                    l1242 03F5                      l1234 03E6                      l1226 03CF  
                    l1218 03BB                      l1170 0307                      l1162 02F8  
                    l1154 02E3                      l1146 02D0                      l1138 02BE  
                    l1410 07E3                      l1402 07BA                      l1330 0542  
                    l1314 04ED                      l1306 04D9                      l1092 02B0  
                    l1084 0281                      l1076 0254                      l1068 0237  
                    l1260 0454                      l1252 0424                      l1244 0409  
                    l1228 03D8                      l1236 03EC                      l1180 032E  
                    l1172 030F                      l1164 02FC                      l1148 02D5  
                    l1156 02E5                      l1412 07E7                      l1404 07C9  
                    l1340 05CB                      l1332 055E                      l1324 0508  
                    l1316 04F5                      l1308 04DE                      l1420 00DC  
                    l1094 02B4                      l1086 028B                      l1078 0262  
                    l1270 0484                      l1262 0462                      l1254 0428  
                    l1238 03F0                      l1182 0332                      l1174 0310  
                    l1166 02FD                      l1158 02ED                      l1414 07E8  
                    l1406 07D3                      l1350 063E                      l1342 05DB  
                    l1334 058A                      l1326 0518                      l1318 04FA  
                    l1430 00F4                      l1422 00E6                      l1096 02B5  
                    l1088 0295                      l1272 0488                      l1264 0471  
                    l1256 0441                      l1248 0411                      l1192 0349  
                    l1168 0302                      l1176 0312                      l1416 07F3  
                    l1408 07D5                      l1360 06EB                      l1352 065B  
                    l1344 05F8                      l1336 05A6                      l1328 0525  
                    l1280 049B                      l1432 0108                      l1424 00E9  
                    l1274 048A                      l1266 0475                      l1258 0447  
                    l1194 035B                      l1178 0322                      l1186 033B  
                    l1370 0737                      l1362 0713                      l1354 0688  
                    l1346 0608                      l1338 05C2                      l1290 04B2  
                    l1282 04A2                      l1434 013E                      l1426 00EC  
                    l1268 047D                      l1196 0363                      l1188 0340  
                    l1380 074C                      l1372 0738                      l1364 071C  
                    l1356 0698                      l1348 0625                      l1292 04B7  
                    l1284 04A8                      l1436 0157                      l1428 00EF  
                    l1198 036B                      l1390 0771                      l1382 0750  
                    l1374 0741                      l1366 072A                      l1358 06C5  
                    l1294 04BF                      l1286 04AC                      l1392 077F  
                    l1384 0764                      l1368 0733                      l1376 0747  
                    l1296 04C1                      l1288 04AD                      l1394 0783  
                    l1378 074B                      l1298 04C9                      l1396 079C  
                    l1388 076C                      l1398 07A2                      u1000 022E  
                    u1001 022D                      u1100 02B0                      u1020 024F  
                    u1101 02AF                      u1021 024E                      u1110 02B4  
                    u1111 02B3                      u1015 0241                      u1040 0271  
                    u1120 0088                      u1041 0270                      u1121 0087  
                    u1201 01D5                      u1210 0200                      u1202 01D6  
                    u1035 0263                      u1211 01FF                      u1203 01DB  
                    u1060 0281                      u1140 00B4                      u1300 037A  
                    u1220 02CF                      u1204 01DC                      u1061 0280  
                    u1141 00B3                      u1301 0379                      u1221 02CE  
                    u1205 01E1                      u1070 0287                      u1230 02D5  
                    u1206 01E2                      u1150 0176                      u1071 0286  
                    u1055 0276                      u1135 0098                      u1231 02D4  
                    u1215 01FC                      u1151 0175                      u1080 028B  
                    u1240 02DA                      u1160 0192                      u1081 028A  
                    u1241 02D9                      u1161 0191                      u1090 02A0  
                    u1410 03F0                      u1330 0390                      u1250 02FC  
                    u1170 019E                      u1411 03EF                      u1331 038F  
                    u1315 037C                      u1251 02FB                      u1171 019D  
                    u1500 0488                      u1420 03F5                      u1260 0302  
                    u1501 0487                      u1421 03F4                      u1405 03DF  
                    u1325 0385                      u1261 0301                      u1181 01AD  
                    u1430 0409                      u1350 03AC                      u1270 0307  
                    u1190 01C6                      u1182 01AE                      u1510 04AC  
                    u1095 029B                      u1431 0408                      u1351 03AB  
                    u1271 0306                      u1191 01C5                      u1183 01B3  
                    u1511 04AB                      u1440 0410                      u1360 03C5  
                    u1280 0322                      u1184 01B4                      u1520 04B2  
                    u1441 040F                      u1361 03C4                      u1345 0393  
                    u1281 0321                      u1185 01B9                      u1601 056C  
                    u1521 04B1                      u1450 0416                      u1370 03CD  
                    u1290 0340                      u1186 01BA                      u1602 0573  
                    u1530 04B7                      u1451 0415                      u1371 03CC  
                    u1355 03A8                      u1291 033F                      u1611 0598  
                    u1603 057A                      u1531 04B6                      u1460 0428  
                    u1700 06D1                      u1612 059F                      u1540 04D8  
                    u1461 0427                      u1621 05B4                      u1613 05A6  
                    u1541 04D7                      u1470 0437                      u1390 03DC  
                    u1622 05BB                      u1550 04DE                      u1391 03DB  
                    u1711 06DD                      u1623 05C2                      u1551 04DD  
                    u1480 0454                      u1800 0764                      u1720 06F9  
                    u1712 06E4                      u1560 04E3                      u1481 0453  
                    u1385 03D1                      u1801 0763                      u1713 06EB  
                    u1705 06CC                      u1641 05EA                      u1561 04E2  
                    u1490 0471                      u1810 076B                      u1642 05F1  
                    u1570 04FA                      u1491 0470                      u1475 0432  
                    u1811 076A                      u1731 0705                      u1651 0617  
                    u1643 05F8                      u1635 05C4                      u1571 04F9  
                    u1820 0771                      u1732 070C                      u1652 061E  
                    u1580 04FF                      u1485 0450                      u1821 0770  
                    u1733 0713                      u1725 06F4                      u1653 0625  
                    u1581 04FE                      u1830 0783                      u1495 046D  
                    u1831 0782                      u1671 064D                      u1591 0550  
                    u1840 0792                      u1760 0737                      u1672 0654  
                    u1592 0557                      u1761 0736                      u1745 0715  
                    u1681 067A                      u1673 065B                      u1665 0627  
                    u1593 055E                      u1850 07AF                      u1682 0681  
                    u1851 07AE                      u1755 072C                      u1691 06A7  
                    u1683 0688                      u1860 07C9                      u1780 074B  
                    u1692 06AE                      u1861 07C8                      u1845 078D  
                    u1781 074A                      u1693 06B5                      u1870 07E7  
                    u1790 0750                      u1871 07E6                      u1855 07AB  
                    u1791 074F                      u1775 073A                      u1880 0157  
                    u1865 07C5                      u1881 0156                      u1897 00A8  
                    _main 00DC                      btemp 007E                      start 0000  
        __end_of_ADC_init 0056           ___fldiv@new_exp 0047    ADC_readChannel@channel 0020  
                   ?_main 0070           __end_of___fldiv 049B           __end_of___flmul 07FC  
                   _TRISD 0088                     status 0003                     wtemp0 007E  
           main@adc_input 004F           __initialization 07FC              __end_of_main 0162  
                  ??_main 007E                    _ADCON0 001F                    _ADCON1 009F  
                  _ADRESH 001E                    _ADRESL 009E          __end_of___xxtofl 02BE  
                  ___flge 0162                 ??___fldiv 003D                 ??___flmul 0079  
__size_of_ADC_readChannel 005F        __size_of__Umul8_16 0027                 ?_ADC_init 0070  
              ___flge@ff1 0070                ___flge@ff2 0074              ___xxtofl@arg 007A  
            ___xxtofl@exp 0079              ___xxtofl@val 0070   __end_of__initialization 07FC  
          __pcstackCOMMON 0070                ??_ADC_init 0070         __end_of__Umul8_16 007D  
              __pmaintext 00DC                   ?___flge 0070                 ?___xxtofl 0070  
       ??_ADC_readChannel 0024           __size_of___flge 00A2                   ___fldiv 02BE  
                 ___flmul 049B                   __ptext1 049B                   __ptext2 0056  
                 __ptext3 0162                   __ptext4 02BE                   __ptext5 007D  
                 __ptext6 0204                   __ptext7 004D                ??___xxtofl 0074  
    end_of_initialization 07FC                 _PORTDbits 0008             ___xxtofl@sign 0078  
               _TRISAbits 0085               ___fldiv@grs 0049               ___fldiv@rem 0042  
       __size_of_ADC_init 0009               ___flmul@grs 0029            __end_of___flge 0204  
     start_initialization 07FC                  ??___flge 0078                 __Umul8_16 0056  
         _ADC_readChannel 007D                 ___fldiv@a 0035                 ___fldiv@b 0039  
               ___flmul@a 0024                 ___flmul@b 0020                 ___latbits 0002  
           __pcstackBANK0 0020         __size_of___xxtofl 00BA                  ?___fldiv 0035  
                ?___flmul 0020                ?__Umul8_16 0070                  _ADC_init 004D  
 __end_of_ADC_readChannel 00DC                  _GO_nDONE 00FA               ??__Umul8_16 0072  
        __size_of___fldiv 01DD          __size_of___flmul 0361                  ___xxtofl 0204  
           __size_of_main 0086          ?_ADC_readChannel 0020                  main@vout 0053  
  __Umul8_16@multiplicand 0070      __Umul8_16@multiplier 0078         __Umul8_16@product 0074  
